Archive member included because of file (symbol)

target\libxme_target_startup.a(startup_stm32f10x_cl.S.obj)
                              (--whole-archive)
target\libxme_target_startup.a(port.c.obj)
                              (--whole-archive)
target\libxme_lwip_core.a(def.c.obj)
                              CMakeFiles/firmware.dir/udpecho.c.obj (lwip_htons)
target\libxme_lwip_core.a(pbuf.c.obj)
                              CMakeFiles/firmware.dir/lwip_test.c.obj (pbuf_alloc)
target\libxme_lwip_core.a(tcp.c.obj)
                              target\libxme_lwip_core.a(pbuf.c.obj) (tcp_active_pcbs)
target\libxme_lwip_core.a(tcp_out.c.obj)
                              target\libxme_lwip_core.a(tcp.c.obj) (tcp_send_fin)
target\libxme_lwip_core.a(timers.c.obj)
                              target\libxme_lwip_core.a(tcp.c.obj) (tcp_timer_needed)
target\libxme_lwip_core.a(udp.c.obj)
                              CMakeFiles/firmware.dir/lwip_test.c.obj (udp_sendto)
target\libxme_lwip_core.a(sockets.c.obj)
                              CMakeFiles/firmware.dir/udpecho.c.obj (lwip_bind)
target\libxme_lwip_core.a(tcpip.c.obj)
                              target\libxme_lwip_core.a(pbuf.c.obj) (tcpip_callback_with_block)
target\libxme_lwip_core.a(dhcp.c.obj)
                              target\libxme_lwip_core.a(timers.c.obj) (dhcp_coarse_tmr)
target\libxme_lwip_core.a(dns.c.obj)
                              target\libxme_lwip_core.a(dhcp.c.obj) (dns_setserver)
target\libxme_lwip_core.a(init.c.obj)
                              target\libxme_lwip_core.a(tcpip.c.obj) (lwip_init)
target\libxme_lwip_core.a(mem.c.obj)
                              target\libxme_lwip_core.a(init.c.obj) (mem_init)
target\libxme_lwip_core.a(memp.c.obj)
                              target\libxme_lwip_core.a(init.c.obj) (memp_init)
target\libxme_lwip_core.a(netif.c.obj)
                              target\libxme_lwip_core.a(dhcp.c.obj) (netif_list)
target\libxme_lwip_core.a(tcp_in.c.obj)
                              target\libxme_lwip_core.a(tcp_out.c.obj) (tcp_input_pcb)
target\libxme_lwip_core.a(api_lib.c.obj)
                              target\libxme_lwip_core.a(sockets.c.obj) (netconn_new_with_proto_and_callback)
target\libxme_lwip_core.a(api_msg.c.obj)
                              target\libxme_lwip_core.a(api_lib.c.obj) (netconn_alloc)
target\libxme_lwip_core.a(netbuf.c.obj)
                              target\libxme_lwip_core.a(sockets.c.obj) (netbuf_delete)
target\libxme_lwip_core.a(raw.c.obj)
                              target\libxme_lwip_core.a(api_msg.c.obj) (raw_bind)
target\libxme_lwip_core_ipv4.a(icmp.c.obj)
                              target\libxme_lwip_core.a(udp.c.obj) (icmp_dest_unreach)
target\libxme_lwip_core_ipv4.a(igmp.c.obj)
                              target\libxme_lwip_core.a(init.c.obj) (igmp_init)
target\libxme_lwip_core_ipv4.a(inet_chksum.c.obj)
                              target\libxme_lwip_core_ipv4.a(icmp.c.obj) (inet_chksum)
target\libxme_lwip_core_ipv4.a(ip.c.obj)
                              target\libxme_lwip_core.a(api_msg.c.obj) (current_header)
target\libxme_lwip_core_ipv4.a(ip_addr.c.obj)
                              CMakeFiles/firmware.dir/lwip_test.c.obj (ip_addr_any)
target\libxme_lwip_core_ipv4.a(ip_frag.c.obj)
                              target\libxme_lwip_core.a(timers.c.obj) (ip_reass_tmr)
target\libxme_lwip_netif_ethernet.a(enet.c.obj)
                              CMakeFiles/firmware.dir/main.c.obj (EnetInit)
target\libxme_lwip_netif_ethernet.a(lwiplib.c.obj)
                              target\libxme_lwip_netif_ethernet.a(enet.c.obj) (lwIPInit)
target\libxme_lwip_netif_ethernet.a(ethernetif.c.obj)
                              target\libxme_lwip_netif_ethernet.a(lwiplib.c.obj) (stm32_ethernetif_input)
target\libxme_lwip_netif_ethernet.a(sys_arch.c.obj)
                              target\libxme_lwip_core_ipv4.a(igmp.c.obj) (lwip_rand_arch)
target\libxme_lwip_netif_ethernet.a(stm32_eth.c.obj)
                              target\libxme_lwip_netif_ethernet.a(ethernetif.c.obj) (DMATxDescToSet)
target\libxme_freertos_kernel.a(queue.c.obj)
                              CMakeFiles/firmware.dir/application_logic.c.obj (xQueueGenericCreate)
target\libxme_freertos_kernel.a(tasks.c.obj)
                              target\libxme_target_startup.a(port.c.obj) (pxCurrentTCB)
target\libxme_freertos_kernel.a(list.c.obj)
                              target\libxme_freertos_kernel.a(queue.c.obj) (vListInitialise)
target\libxme_freertos_memmang.a(heap_2.c.obj)
                              target\libxme_freertos_kernel.a(queue.c.obj) (pvPortMalloc)
target\libxme_target_bsp.a(enet_arch.c.obj)
                              target\libxme_lwip_netif_ethernet.a(enet.c.obj) (Set_MAC_Address)
target\libxme_target_bsp.a(system_stm32f10x.c.obj)
                              target\libxme_target_startup.a(startup_stm32f10x_cl.S.obj) (SystemInit)
target\libxme_hal_dio.a(dio_arch.c.obj)
                              CMakeFiles/firmware.dir/udpecho.c.obj (xme_hal_dio_led_init)
target\libbelle_drivers.a(mux.c.obj)
                              CMakeFiles/firmware.dir/initialization_functions.c.obj (mux_init)
target\libbelle_drivers.a(mux_inst.c.obj)
                              CMakeFiles/firmware.dir/dac_spi_cs_mux.c.obj (board_selection_dac)
target\libbelle_drivers.a(gpio_config.c.obj)
                              CMakeFiles/firmware.dir/regulator_status_enable_pins.c.obj (belle_gpio_pin_init)
target\libbelle_drivers.a(spi.c.obj)
                              CMakeFiles/firmware.dir/initialization_functions.c.obj (spi_init)
target\libbelle_drivers.a(spi_inst.c.obj)
                              CMakeFiles/firmware.dir/initialization_functions.c.obj (dac_spi)
target\libbelle_drivers.a(adc_ad7322.c.obj)
                              CMakeFiles/firmware.dir/adc_spi_cs_mux.c.obj (ad7322_configure_range_reg)
target\libbelle_drivers.a(adc_ad7322_inst.c.obj)
                              CMakeFiles/firmware.dir/adc_spi_cs_mux.c.obj (board_adc)
target\libbelle_drivers.a(dac_ad5392.c.obj)
                              CMakeFiles/firmware.dir/dac_spi_cs_mux.c.obj (dac_ad5392_init)
target\libbelle_drivers.a(dac_ad5392_inst.c.obj)
                              CMakeFiles/firmware.dir/help_functions_for_calibration.c.obj (board_dac_digital)
target\libbelle_drivers.a(adc_intern_stm32f107.c.obj)
                              CMakeFiles/firmware.dir/initialization_functions.c.obj (stm32f107_adc_init)
target\libbelle_drivers.a(adc_intern_stm32f107_inst.c.obj)
                              CMakeFiles/firmware.dir/application_logic.c.obj (temperature_adc)
target\libbelle_drivers.a(i2c.c.obj)
                              CMakeFiles/firmware.dir/initialization_functions.c.obj (i2c_init)
target\libbelle_drivers.a(i2c_inst.c.obj)
                              CMakeFiles/firmware.dir/initialization_functions.c.obj (i2c_eeprom)
target\libbelle_drivers.a(eeprom.c.obj)
                              CMakeFiles/firmware.dir/initialization_functions.c.obj (eeprom_write_calibration_page_values)
target\libbelle_drivers.a(eeprom_inst.c.obj)
                              CMakeFiles/firmware.dir/initialization_functions.c.obj (belle_eeprom)
target\libxme_stm32f0xspl_spi.a(stm32f10x_spi.c.obj)
                              target\libbelle_drivers.a(spi.c.obj) (SPI_I2S_DeInit)
target\libxme_stm32f0xspl_i2c.a(stm32f10x_i2c.c.obj)
                              target\libbelle_drivers.a(i2c.c.obj) (I2C_Init)
target\libxme_stm32f0xspl_adc.a(stm32f10x_adc.c.obj)
                              target\libbelle_drivers.a(adc_intern_stm32f107.c.obj) (ADC_DeInit)
target\libxme_core_core.a(core.c.obj)
                              CMakeFiles/firmware.dir/main.c.obj (xme_core_init)
target\libxme_core_core.a(dcc.c.obj)
                              target\libxme_core_core.a(core.c.obj) (xme_core_dcc_init)
target\libxme_core_core.a(directory.c.obj)
                              CMakeFiles/firmware.dir/main.c.obj (xme_core_directory_create)
target\libxme_core_core.a(interfaceManager.c.obj)
                              target\libxme_core_core.a(core.c.obj) (xme_core_interfaceManager_init)
target\libxme_core_core.a(md.c.obj)
                              target\libxme_core_core.a(core.c.obj) (xme_core_md_init)
target\libxme_core_core.a(nodeManager.c.obj)
                              CMakeFiles/firmware.dir/main.c.obj (xme_core_nodeManager_create)
target\libxme_core_core.a(net_plugin.c.obj)
                              target\libxme_core_core.a(interfaceManager.c.obj) (xme_core_net_plugin_get_interface)
target\libxme_core_core.a(net_plugin_tcp.c.obj)
                              target\libxme_core_core.a(interfaceManager.c.obj) (xme_core_net_plugin_tcp_get_interface)
target\libxme_core_core.a(packet.c.obj)
                              target\libxme_core_core.a(interfaceManager.c.obj) (xme_core_packet_sample_create_payloadSize)
target\libxme_core_core.a(resourceManager.c.obj)
                              target\libxme_core_core.a(dcc.c.obj) (xme_core_resourceManager_config)
target\libxme_core_core.a(routingTable.c.obj)
                              target\libxme_core_core.a(core.c.obj) (xme_core_routingTable_init)
target\libxme_core_core.a(rr.c.obj)
                              target\libxme_core_core.a(core.c.obj) (xme_core_rr_init)
target\libxme_core_core.a(broker.c.obj)
                              target\libxme_core_core.a(core.c.obj) (xme_core_broker_init)
target\libxme_hal_net.a(net_arch.c.obj)
                              target\libxme_core_core.a(core.c.obj) (xme_hal_net_init)
target\libxme_lwip_netif_arp.a(etharp.c.obj)
                              target\libxme_lwip_core.a(timers.c.obj) (etharp_tmr)
target\libxme_lwip_core.a(netdb.c.obj)
                              target\libxme_hal_net.a(net_arch.c.obj) (lwip_freeaddrinfo)
target\libxme_stm32f0xspl_rcc.a(stm32f10x_rcc.c.obj)
                              target\libxme_target_bsp.a(enet_arch.c.obj) (RCC_GetFlagStatus)
target\libxme_stm32f0xspl_misc.a(misc.c.obj)
                              target\libxme_target_bsp.a(enet_arch.c.obj) (NVIC_PriorityGroupConfig)
target\libxme_stm32f0xspl_misc.a(stm32f10x_exti.c.obj)
                              target\libxme_target_bsp.a(enet_arch.c.obj) (EXTI_Init)
target\libxme_stm32f0xspl_gpio.a(stm32f10x_gpio.c.obj)
                              target\libxme_target_bsp.a(enet_arch.c.obj) (GPIO_Init)
target\libxme_hal_energy.a(energy_arch.c.obj)
                              target\libxme_core_core.a(core.c.obj) (xme_hal_energy_sleep)
target\libxme_hal_sched.a(sched_arch.c.obj)
                              target\libxme_core_core.a(core.c.obj) (xme_hal_sched_init)
target\libxme_hal_sync.a(sync_arch.c.obj)
                              target\libxme_core_core.a(core.c.obj) (xme_hal_sync_init)
target\libxme_hal_table.a(table_arch.c.obj)
                              CMakeFiles/firmware.dir/belle_network_connection_Component.c.obj (xme_hal_table_addItem)
target\libxme_hal_tls.a(tls_arch.c.obj)
                              target\libxme_core_core.a(core.c.obj) (xme_hal_tls_init)
target\libxme_hal_random.a(random_arch.c.obj)
                              target\libxme_core_core.a(core.c.obj) (xme_hal_random_init)
target\libxme_hal_sharedPtr.a(sharedPtr_arch.c.obj)
                              target\libxme_core_core.a(core.c.obj) (xme_hal_sharedPtr_init)
target\libxme_hal_mem.a(mem_arch.c.obj)
                              target\libxme_core_core.a(nodeManager.c.obj) (xme_hal_mem_alloc)
c:/belleii/devenv/toolchain/arm-gcc/bin/../lib/gcc/arm-none-eabi/4.5.2/thumb2\libgcc.a(_arm_addsubsf3.o)
                              target\libxme_hal_net.a(net_arch.c.obj) (__aeabi_fsub)
c:/belleii/devenv/toolchain/arm-gcc/bin/../lib/gcc/arm-none-eabi/4.5.2/thumb2\libgcc.a(_arm_muldivsf3.o)
                              target\libxme_hal_net.a(net_arch.c.obj) (__aeabi_fmul)
c:/belleii/devenv/toolchain/arm-gcc/bin/../lib/gcc/arm-none-eabi/4.5.2/thumb2\libgcc.a(_arm_fixsfsi.o)
                              target\libxme_hal_net.a(net_arch.c.obj) (__aeabi_f2iz)
c:/belleii/devenv/toolchain/arm-gcc/bin/../lib/gcc/arm-none-eabi/4.5.2/thumb2\libgcc.a(_aeabi_ldivmod.o)
                              CMakeFiles/firmware.dir/help_functions_for_calibration.c.obj (__aeabi_ldivmod)
c:/belleii/devenv/toolchain/arm-gcc/bin/../lib/gcc/arm-none-eabi/4.5.2/thumb2\libgcc.a(_aeabi_uldivmod.o)
                              target\libbelle_drivers.a(dac_ad5392.c.obj) (__aeabi_uldivmod)
c:/belleii/devenv/toolchain/arm-gcc/bin/../lib/gcc/arm-none-eabi/4.5.2/thumb2\libgcc.a(bpabi.o)
                              c:/belleii/devenv/toolchain/arm-gcc/bin/../lib/gcc/arm-none-eabi/4.5.2/thumb2\libgcc.a(_aeabi_ldivmod.o) (__gnu_ldivmod_helper)
c:/belleii/devenv/toolchain/arm-gcc/bin/../lib/gcc/arm-none-eabi/4.5.2/thumb2\libgcc.a(_dvmd_tls.o)
                              c:/belleii/devenv/toolchain/arm-gcc/bin/../lib/gcc/arm-none-eabi/4.5.2/thumb2\libgcc.a(_aeabi_ldivmod.o) (__aeabi_ldiv0)
c:/belleii/devenv/toolchain/arm-gcc/bin/../lib/gcc/arm-none-eabi/4.5.2/thumb2\libgcc.a(_divdi3.o)
                              c:/belleii/devenv/toolchain/arm-gcc/bin/../lib/gcc/arm-none-eabi/4.5.2/thumb2\libgcc.a(bpabi.o) (__divdi3)
c:/belleii/devenv/toolchain/arm-gcc/bin/../lib/gcc/arm-none-eabi/4.5.2/thumb2\libgcc.a(_udivdi3.o)
                              c:/belleii/devenv/toolchain/arm-gcc/bin/../lib/gcc/arm-none-eabi/4.5.2/thumb2\libgcc.a(bpabi.o) (__udivdi3)
c:/belleii/devenv/toolchain/arm-gcc/bin/../lib/gcc/arm-none-eabi/4.5.2/thumb2\libgcc.a(_udivsi3.o)
                              c:/belleii/devenv/toolchain/arm-gcc/bin/../lib/gcc/arm-none-eabi/4.5.2/thumb2\libgcc.a(_divdi3.o) (__aeabi_uidiv)
c:/belleii/devenv/toolchain/arm-gcc/bin/../lib/gcc/arm-none-eabi/4.5.2/../../../../arm-none-eabi/lib/thumb2\libc.a(lib_a-atoi.o)
                              target\libxme_lwip_core.a(netdb.c.obj) (atoi)
c:/belleii/devenv/toolchain/arm-gcc/bin/../lib/gcc/arm-none-eabi/4.5.2/../../../../arm-none-eabi/lib/thumb2\libc.a(lib_a-memcmp.o)
                              target\libxme_lwip_netif_arp.a(etharp.c.obj) (memcmp)
c:/belleii/devenv/toolchain/arm-gcc/bin/../lib/gcc/arm-none-eabi/4.5.2/../../../../arm-none-eabi/lib/thumb2\libc.a(lib_a-memcpy.o)
                              CMakeFiles/firmware.dir/lwip_test.c.obj (memcpy)
c:/belleii/devenv/toolchain/arm-gcc/bin/../lib/gcc/arm-none-eabi/4.5.2/../../../../arm-none-eabi/lib/thumb2\libc.a(lib_a-memset.o)
                              CMakeFiles/firmware.dir/udpecho.c.obj (memset)
c:/belleii/devenv/toolchain/arm-gcc/bin/../lib/gcc/arm-none-eabi/4.5.2/../../../../arm-none-eabi/lib/thumb2\libc.a(lib_a-strcmp.o)
                              CMakeFiles/firmware.dir/belle_II_PS_node_XME_Component.c.obj (strcmp)
c:/belleii/devenv/toolchain/arm-gcc/bin/../lib/gcc/arm-none-eabi/4.5.2/../../../../arm-none-eabi/lib/thumb2\libc.a(lib_a-strlen.o)
                              target\libxme_lwip_core.a(pbuf.c.obj) (strlen)
c:/belleii/devenv/toolchain/arm-gcc/bin/../lib/gcc/arm-none-eabi/4.5.2/../../../../arm-none-eabi/lib/thumb2\libc.a(lib_a-strncpy.o)
                              target\libxme_freertos_kernel.a(tasks.c.obj) (strncpy)
c:/belleii/devenv/toolchain/arm-gcc/bin/../lib/gcc/arm-none-eabi/4.5.2/../../../../arm-none-eabi/lib/thumb2\libc.a(lib_a-strtol.o)
                              c:/belleii/devenv/toolchain/arm-gcc/bin/../lib/gcc/arm-none-eabi/4.5.2/../../../../arm-none-eabi/lib/thumb2\libc.a(lib_a-atoi.o) (_strtol_r)
c:/belleii/devenv/toolchain/arm-gcc/bin/../lib/gcc/arm-none-eabi/4.5.2/../../../../arm-none-eabi/lib/thumb2\libc.a(lib_a-ctype_.o)
                              c:/belleii/devenv/toolchain/arm-gcc/bin/../lib/gcc/arm-none-eabi/4.5.2/../../../../arm-none-eabi/lib/thumb2\libc.a(lib_a-strtol.o) (__ctype_ptr__)
c:/belleii/devenv/toolchain/arm-gcc/bin/../lib/gcc/arm-none-eabi/4.5.2/../../../../arm-none-eabi/lib/thumb2\libc.a(lib_a-impure.o)
                              c:/belleii/devenv/toolchain/arm-gcc/bin/../lib/gcc/arm-none-eabi/4.5.2/../../../../arm-none-eabi/lib/thumb2\libc.a(lib_a-strtol.o) (_impure_ptr)

Allocating common symbols
Common symbol       size              file

current_iphdr_src   0x4               target\libxme_lwip_core_ipv4.a(ip.c.obj)
netif_list          0x4               target\libxme_lwip_core.a(netif.c.obj)
receiveDataTaskHandle
                    0x2               target\libxme_core_core.a(net_plugin.c.obj)
xme_core_net_plugin_tcp_ch_to_phy_mapping_table
                    0x88              target\libxme_core_core.a(net_plugin_tcp.c.obj)
monitor_node_information
                    0x188             CMakeFiles/firmware.dir/adc_spi_cs_mux.c.obj
DMAPTPRxDescToGet   0x4               target\libxme_lwip_netif_ethernet.a(stm32_eth.c.obj)
pubHandle           0x2               CMakeFiles/firmware.dir/belle_II_PS_node_XME_Component.c.obj
xme_adv_testHeartbeat_heartbeatTable
                    0x358             CMakeFiles/firmware.dir/belle_network_connection_Component.c.obj
info_commandType    0x1               CMakeFiles/firmware.dir/adc_spi_cs_mux.c.obj
tcp_end_time        0x4               target\libxme_lwip_netif_ethernet.a(ethernetif.c.obj)
xme_core_net_plugin_tcp_writerTable
                    0x60              target\libxme_core_core.a(net_plugin_tcp.c.obj)
tcp_active_pcbs_changed
                    0x1               target\libxme_lwip_core.a(tcp.c.obj)
tcp_active_pcbs     0x4               target\libxme_lwip_core.a(tcp.c.obj)
workingTaskHandle   0x2               target\libxme_core_core.a(net_plugin_tcp.c.obj)
udp_pcbs            0x4               target\libxme_lwip_core.a(udp.c.obj)
current_netif       0x4               target\libxme_lwip_core_ipv4.a(ip.c.obj)
pubHandleMonitor    0x2               CMakeFiles/firmware.dir/belle_II_PS_node_XME_Component.c.obj
tcp_ticks           0x4               target\libxme_lwip_core.a(tcp.c.obj)
tcp_listen_pcbs     0x4               target\libxme_lwip_core.a(tcp.c.obj)
catchAllHeartbeats  0x1               CMakeFiles/firmware.dir/belle_network_connection_Component.c.obj
DMARxDescToGet      0x4               target\libxme_lwip_netif_ethernet.a(stm32_eth.c.obj)
current_iphdr_dest  0x4               target\libxme_lwip_core_ipv4.a(ip.c.obj)
subHandleCommand    0x2               CMakeFiles/firmware.dir/belle_II_PS_node_XME_Component.c.obj
criticalSectionHandle
                    0x2               target\libxme_core_core.a(interfaceManager.c.obj)
dataToSend          0x34              CMakeFiles/firmware.dir/belle_II_PS_node_XME_Component.c.obj
eeprom_read_address
                    0x2               CMakeFiles/firmware.dir/belle_II_PS_node_XME_Component.c.obj
xme_core_interfaceManager_interfaceTable
                    0x38              target\libxme_core_core.a(interfaceManager.c.obj)
data_arrived        0x1               CMakeFiles/firmware.dir/belle_II_PS_node_XME_Component.c.obj
DMATxDescToSet      0x4               target\libxme_lwip_netif_ethernet.a(stm32_eth.c.obj)
xme_core_log_logCallback
                    0x4               CMakeFiles/firmware.dir/udpecho.c.obj
descr               0x44              CMakeFiles/firmware.dir/belle_II_PS_node_XME_Component.c.obj
tcp_tmp_pcb         0x4               target\libxme_lwip_core.a(tcp.c.obj)
h_errno             0x4               target\libxme_lwip_core.a(netdb.c.obj)
xme_core_net_plugin_tcp_listeningTable
                    0x88              target\libxme_core_core.a(net_plugin_tcp.c.obj)
comm_task           0x2               CMakeFiles/firmware.dir/belle_II_PS_node_XME_Component.c.obj
pubHandleSWRegisterSet
                    0x2               CMakeFiles/firmware.dir/belle_II_PS_node_XME_Component.c.obj
tcp_input_pcb       0x4               target\libxme_lwip_core.a(tcp_in.c.obj)
firmware_version    0x1               CMakeFiles/firmware.dir/adc_spi_cs_mux.c.obj
buffer2             0x40              CMakeFiles/firmware.dir/dac_spi_cs_mux.c.obj
data_arrived_recal  0x1               CMakeFiles/firmware.dir/belle_II_PS_node_XME_Component.c.obj
xme_core_interfaceManager_channelStatusTable
                    0xd4              target\libxme_core_core.a(interfaceManager.c.obj)
i                   0x4               target\libxme_lwip_netif_ethernet.a(lwiplib.c.obj)
test_recalibrate    0x1               CMakeFiles/firmware.dir/belle_II_PS_node_XME_Component.c.obj
subHandleCalibrate  0x2               CMakeFiles/firmware.dir/belle_II_PS_node_XME_Component.c.obj
arp_end_time        0x4               target\libxme_lwip_netif_ethernet.a(ethernetif.c.obj)
DMATxDscrTab        0x20              target\libxme_lwip_netif_ethernet.a(ethernetif.c.obj)
current_header      0x4               target\libxme_lwip_core_ipv4.a(ip.c.obj)
Rx_Buff             0x17c0            target\libxme_lwip_netif_ethernet.a(ethernetif.c.obj)
dhcp_rx_options_given
                    0xa               target\libxme_lwip_core.a(dhcp.c.obj)
buffer              0x64              CMakeFiles/firmware.dir/udpecho.c.obj
subHandleSWRegisterSetDone
                    0x2               CMakeFiles/firmware.dir/belle_II_PS_node_XME_Component.c.obj
tcp_bound_pcbs      0x4               target\libxme_lwip_core.a(tcp.c.obj)
data_arrived_cal    0x1               CMakeFiles/firmware.dir/belle_II_PS_node_XME_Component.c.obj
message_queue       0x4               CMakeFiles/firmware.dir/adc_spi_cs_mux.c.obj
MACaddr             0x6               target\libxme_lwip_netif_ethernet.a(ethernetif.c.obj)
xme_core_net_plugin_tcp_readerTable
                    0xb0              target\libxme_core_core.a(net_plugin_tcp.c.obj)
connectingTaskHandle
                    0x2               target\libxme_core_core.a(net_plugin_tcp.c.obj)
lSocket             0x4               CMakeFiles/firmware.dir/udpecho.c.obj
pbuf_free_ooseq_pending
                    0x1               target\libxme_lwip_core.a(pbuf.c.obj)
DMARxDscrTab        0x40              target\libxme_lwip_netif_ethernet.a(ethernetif.c.obj)
tcp_tw_pcbs         0x4               target\libxme_lwip_core.a(tcp.c.obj)
node_Number         0x1               CMakeFiles/firmware.dir/adc_spi_cs_mux.c.obj
subHandleRecalibrate
                    0x2               CMakeFiles/firmware.dir/belle_II_PS_node_XME_Component.c.obj
netif_default       0x4               target\libxme_lwip_core.a(netif.c.obj)
log_node_information
                    0x1a8             CMakeFiles/firmware.dir/adc_spi_cs_mux.c.obj
xme_core_routingTable_config
                    0x218             target\libxme_core_core.a(routingTable.c.obj)
dhcp_rx_options_val
                    0x28              target\libxme_lwip_core.a(dhcp.c.obj)
ram_heap            0x654             target\libxme_lwip_core.a(mem.c.obj)
maxTimestampAge     0x4               CMakeFiles/firmware.dir/belle_network_connection_Component.c.obj
monitor_node_info_all_channels
                    0x180             CMakeFiles/firmware.dir/adc_spi_cs_mux.c.obj
Tx_Buff             0xbe0             target\libxme_lwip_netif_ethernet.a(ethernetif.c.obj)
DMAPTPTxDescToSet   0x4               target\libxme_lwip_netif_ethernet.a(stm32_eth.c.obj)
xme_hal_sharedPtr_buffer
                    0x190             target\libxme_hal_sharedPtr.a(sharedPtr_arch.c.obj)
xme_core_resourceManager_config
                    0x6f4             target\libxme_core_core.a(resourceManager.c.obj)
test_set_value      0x1               CMakeFiles/firmware.dir/belle_II_PS_node_XME_Component.c.obj

Memory Configuration

Name             Origin             Length             Attributes
RAM              0x20000000         0x00010000         xrw
FLASH            0x08000000         0x00040000         xr
FLASHB1          0x00000000         0x00000000         xr
EXTMEMB0         0x00000000         0x00000000         xr
EXTMEMB1         0x00000000         0x00000000         xr
EXTMEMB2         0x00000000         0x00000000         xr
EXTMEMB3         0x00000000         0x00000000         xr
*default*        0x00000000         0xffffffff

Linker script and memory map

LOAD CMakeFiles/firmware.dir/stm32f10x_it.c.obj
LOAD CMakeFiles/firmware.dir/lwip_test.c.obj
LOAD CMakeFiles/firmware.dir/udpecho.c.obj
LOAD CMakeFiles/firmware.dir/dac_spi_cs_mux.c.obj
LOAD CMakeFiles/firmware.dir/adc_spi_cs_mux.c.obj
LOAD CMakeFiles/firmware.dir/belle_II_PS_node_XME_Component.c.obj
LOAD CMakeFiles/firmware.dir/help_functions_for_calibration.c.obj
LOAD CMakeFiles/firmware.dir/application_logic.c.obj
LOAD CMakeFiles/firmware.dir/self_tests.c.obj
LOAD CMakeFiles/firmware.dir/regulator_status_enable_pins.c.obj
LOAD CMakeFiles/firmware.dir/initialization_functions.c.obj
LOAD CMakeFiles/firmware.dir/startup.c.obj
LOAD CMakeFiles/firmware.dir/recalibrate_logic.c.obj
LOAD CMakeFiles/firmware.dir/shutdown.c.obj
LOAD CMakeFiles/firmware.dir/alive_strobe.c.obj
LOAD CMakeFiles/firmware.dir/belle_network_connection_Component.c.obj
LOAD CMakeFiles/firmware.dir/main.c.obj
LOAD target\libxme_target_startup.a
LOAD target\libxme_hal_persistence.a
LOAD target\libxme_lwip_core.a
LOAD target\libxme_lwip_core_ipv4.a
LOAD target\libxme_lwip_netif_ethernet.a
LOAD target\libxme_freertos_kernel.a
LOAD target\libxme_freertos_memmang.a
LOAD target\libxme_target_bsp.a
LOAD target\libxme_hal_net.a
LOAD target\libxme_hal_dio.a
LOAD target\libbelle_drivers.a
LOAD target\libxme_stm32f0xspl_spi.a
LOAD target\libxme_stm32f0xspl_i2c.a
LOAD target\libxme_stm32f0xspl_adc.a
LOAD target\libxme_prim_ipLoginServerProxy.a
LOAD target\libxme_core_core.a
LOAD target\libxme_hal_dio.a
LOAD target\libxme_hal_net.a
LOAD target\libxme_hal_time.a
LOAD target\libxme_lwip_core_ipv4.a
LOAD target\libxme_lwip_netif_ethernet.a
LOAD target\libxme_lwip_netif_arp.a
LOAD target\libxme_lwip_core.a
LOAD target\libxme_hal_dio.a
LOAD target\libxme_target_bsp.a
LOAD target\libxme_stm32f0xspl_rcc.a
LOAD target\libxme_stm32f0xspl_misc.a
LOAD target\libxme_stm32f0xspl_gpio.a
LOAD target\libxme_freertos_timers.a
LOAD target\libxme_hal_energy.a
LOAD target\libxme_hal_math.a
LOAD target\libxme_hal_sched.a
LOAD target\libxme_freertos_kernel.a
LOAD target\libxme_target_startup.a
LOAD target\libxme_freertos_memmang.a
LOAD target\libxme_hal_sync.a
LOAD target\libxme_hal_table.a
LOAD target\libxme_hal_tls.a
LOAD target\libxme_hal_random.a
LOAD target\libxme_hal_sharedPtr.a
LOAD target\libxme_hal_mem.a
START GROUP
LOAD c:/belleii/devenv/toolchain/arm-gcc/bin/../lib/gcc/arm-none-eabi/4.5.2/thumb2\libgcc.a
LOAD c:/belleii/devenv/toolchain/arm-gcc/bin/../lib/gcc/arm-none-eabi/4.5.2/../../../../arm-none-eabi/lib/thumb2\libc.a
END GROUP
                0x00000400                __Stack_Size = 0x400
                0x00000400                PROVIDE (_Stack_Size, __Stack_Size)
                0x2000fbff                __Stack_Init = (_estack - __Stack_Size)
                0x2000fbff                PROVIDE (_Stack_Init, __Stack_Init)
                0x00000100                _Minimum_Stack_Size = 0x100
                0x00000000                PROVIDE (Undefined_Handler, 0x0)
                0x00000000                PROVIDE (SWI_Handler, 0x0)
                0x00000000                PROVIDE (IRQ_Handler, 0x0)
                0x00000000                PROVIDE (Prefetch_Handler, 0x0)
                0x00000000                PROVIDE (Abort_Handler, 0x0)
                0x00000000                PROVIDE (FIQ_Handler, 0x0)
                0x00000000                PROVIDE (NMIException, 0x0)
                0x00000000                PROVIDE (HardFaultException, 0x0)
                0x00000000                PROVIDE (MemManageException, 0x0)
                0x00000000                PROVIDE (BusFaultException, 0x0)
                0x00000000                PROVIDE (UsageFaultException, 0x0)
                0x00000000                PROVIDE (SVCHandler, 0x0)
                0x00000000                PROVIDE (DebugMonitor, 0x0)
                0x00000000                PROVIDE (PendSVC, 0x0)
                0x00000000                PROVIDE (SysTickHandler, 0x0)
                0x00000000                PROVIDE (WWDG_IRQHandler, 0x0)
                0x00000000                PROVIDE (PVD_IRQHandler, 0x0)
                0x00000000                PROVIDE (TAMPER_IRQHandler, 0x0)
                0x00000000                PROVIDE (RTC_IRQHandler, 0x0)
                0x00000000                PROVIDE (FLASH_IRQHandler, 0x0)
                0x00000000                PROVIDE (RCC_IRQHandler, 0x0)
                0x00000000                PROVIDE (EXTI0_IRQHandler, 0x0)
                0x00000000                PROVIDE (EXTI1_IRQHandler, 0x0)
                0x00000000                PROVIDE (EXTI2_IRQHandler, 0x0)
                0x00000000                PROVIDE (EXTI3_IRQHandler, 0x0)
                0x00000000                PROVIDE (EXTI4_IRQHandler, 0x0)
                0x00000000                PROVIDE (DMAChannel1_IRQHandler, 0x0)
                0x00000000                PROVIDE (DMAChannel2_IRQHandler, 0x0)
                0x00000000                PROVIDE (DMAChannel3_IRQHandler, 0x0)
                0x00000000                PROVIDE (DMAChannel4_IRQHandler, 0x0)
                0x00000000                PROVIDE (DMAChannel5_IRQHandler, 0x0)
                0x00000000                PROVIDE (DMAChannel6_IRQHandler, 0x0)
                0x00000000                PROVIDE (DMAChannel7_IRQHandler, 0x0)
                0x00000000                PROVIDE (ADC_IRQHandler, 0x0)
                0x00000000                PROVIDE (USB_HP_CAN_TX_IRQHandler, 0x0)
                0x00000000                PROVIDE (USB_LP_CAN_RX0_IRQHandler, 0x0)
                0x00000000                PROVIDE (CAN_RX1_IRQHandler, 0x0)
                0x00000000                PROVIDE (CAN_SCE_IRQHandler, 0x0)
                0x00000000                PROVIDE (EXTI9_5_IRQHandler, 0x0)
                0x00000000                PROVIDE (TIM1_BRK_IRQHandler, 0x0)
                0x00000000                PROVIDE (TIM1_UP_IRQHandler, 0x0)
                0x00000000                PROVIDE (TIM1_TRG_COM_IRQHandler, 0x0)
                0x00000000                PROVIDE (TIM1_CC_IRQHandler, 0x0)
                0x00000000                PROVIDE (TIM2_IRQHandler, 0x0)
                0x00000000                PROVIDE (TIM3_IRQHandler, 0x0)
                0x00000000                PROVIDE (TIM4_IRQHandler, 0x0)
                0x00000000                PROVIDE (I2C1_EV_IRQHandler, 0x0)
                0x00000000                PROVIDE (I2C1_ER_IRQHandler, 0x0)
                0x00000000                PROVIDE (I2C2_EV_IRQHandler, 0x0)
                0x00000000                PROVIDE (I2C2_ER_IRQHandler, 0x0)
                0x00000000                PROVIDE (SPI1_IRQHandler, 0x0)
                0x00000000                PROVIDE (SPI2_IRQHandler, 0x0)
                0x00000000                PROVIDE (USART1_IRQHandler, 0x0)
                0x00000000                PROVIDE (USART2_IRQHandler, 0x0)
                0x00000000                PROVIDE (USART3_IRQHandler, 0x0)
                0x00000000                PROVIDE (EXTI15_10_IRQHandler, 0x0)
                0x00000000                PROVIDE (RTCAlarm_IRQHandler, 0x0)
                0x00000000                PROVIDE (USBWakeUp_IRQHandler, 0x0)
                0x42000000                PERIPH_BB_BASE = 0x42000000
                0x22000000                SRAM_BB_BASE = 0x22000000
                0x20000000                SRAM_BASE = 0x20000000
                0x40000000                PERIPH_BASE = 0x40000000
                0x40022000                PROVIDE (FLASH_BASE, 0x40022000)
                0x1ffff800                PROVIDE (OB_BASE, 0x1ffff800)
                0x40000000                APB1PERIPH_BASE = PERIPH_BASE
                0x40010000                APB2PERIPH_BASE = (PERIPH_BASE + 0x10000)
                0x40020000                AHBPERIPH_BASE = (PERIPH_BASE + 0x20000)
                0x40000000                PROVIDE (TIM2, (APB1PERIPH_BASE + 0x0))
                0x40000400                PROVIDE (TIM3, (APB1PERIPH_BASE + 0x400))
                0x40000800                PROVIDE (TIM4, (APB1PERIPH_BASE + 0x800))
                0x40002800                PROVIDE (RTC, (APB1PERIPH_BASE + 0x2800))
                0x40002c00                PROVIDE (WWDG, (APB1PERIPH_BASE + 0x2c00))
                0x40003000                PROVIDE (IWDG, (APB1PERIPH_BASE + 0x3000))
                0x40003800                PROVIDE (SPI2, (APB1PERIPH_BASE + 0x3800))
                0x40004400                PROVIDE (USART2, (APB1PERIPH_BASE + 0x4400))
                0x40004800                PROVIDE (USART3, (APB1PERIPH_BASE + 0x4800))
                0x40005400                PROVIDE (I2C1, (APB1PERIPH_BASE + 0x5400))
                0x40005800                PROVIDE (I2C2, (APB1PERIPH_BASE + 0x5800))
                0x40006400                PROVIDE (CAN, (APB1PERIPH_BASE + 0x6400))
                0x40006c00                PROVIDE (BKP, (APB1PERIPH_BASE + 0x6c00))
                0x40007000                PROVIDE (PWR, (APB1PERIPH_BASE + 0x7000))
                0x40010000                PROVIDE (AFIO, (APB2PERIPH_BASE + 0x0))
                0x40010400                PROVIDE (EXTI, (APB2PERIPH_BASE + 0x400))
                0x40010800                PROVIDE (GPIOA, (APB2PERIPH_BASE + 0x800))
                0x40010c00                PROVIDE (GPIOB, (APB2PERIPH_BASE + 0xc00))
                0x40011000                PROVIDE (GPIOC, (APB2PERIPH_BASE + 0x1000))
                0x40011400                PROVIDE (GPIOD, (APB2PERIPH_BASE + 0x1400))
                0x40011800                PROVIDE (GPIOE, (APB2PERIPH_BASE + 0x1800))
                0x40012400                PROVIDE (ADC1, (APB2PERIPH_BASE + 0x2400))
                0x40012800                PROVIDE (ADC2, (APB2PERIPH_BASE + 0x2800))
                0x40012c00                PROVIDE (TIM1, (APB2PERIPH_BASE + 0x2c00))
                0x40013000                PROVIDE (SPI1, (APB2PERIPH_BASE + 0x3000))
                0x40013800                PROVIDE (USART1, (APB2PERIPH_BASE + 0x3800))
                0x40020000                PROVIDE (DMA, (AHBPERIPH_BASE + 0x0))
                0x40020008                PROVIDE (DMA_Channel1, (AHBPERIPH_BASE + 0x8))
                0x4002001c                PROVIDE (DMA_Channel2, (AHBPERIPH_BASE + 0x1c))
                0x40020030                PROVIDE (DMA_Channel3, (AHBPERIPH_BASE + 0x30))
                0x40020044                PROVIDE (DMA_Channel4, (AHBPERIPH_BASE + 0x44))
                0x40020058                PROVIDE (DMA_Channel5, (AHBPERIPH_BASE + 0x58))
                0x4002006c                PROVIDE (DMA_Channel6, (AHBPERIPH_BASE + 0x6c))
                0x40020080                PROVIDE (DMA_Channel7, (AHBPERIPH_BASE + 0x80))
                0x40021000                PROVIDE (RCC, (AHBPERIPH_BASE + 0x1000))
                0xe000e000                SCS_BASE = 0xe000e000
                0xe000e010                PROVIDE (SysTick, (SCS_BASE + 0x10))
                0xe000e100                PROVIDE (NVIC, (SCS_BASE + 0x100))
                0xe000ed00                PROVIDE (SCB, (SCS_BASE + 0xd00))
                0x2000ffff                _estack = 0x2000ffff

.isr_vector     0x08000000      0x1e4
                0x08000000                . = ALIGN (0x4)
 *(.isr_vector)
 .isr_vector    0x08000000      0x1e4 target\libxme_target_startup.a(startup_stm32f10x_cl.S.obj)
                0x08000000                g_pfnVectors
                0x080001e4                . = ALIGN (0x4)

.ARM.extab      0x080001e4        0x0
 .ARM.extab     0x080001e4        0x0 c:/belleii/devenv/toolchain/arm-gcc/bin/../lib/gcc/arm-none-eabi/4.5.2/thumb2\libgcc.a(_divdi3.o)
 .ARM.extab     0x080001e4        0x0 c:/belleii/devenv/toolchain/arm-gcc/bin/../lib/gcc/arm-none-eabi/4.5.2/thumb2\libgcc.a(_udivdi3.o)

.ARM.exidx      0x080001e4        0x8
 .ARM.exidx     0x080001e4        0x8 c:/belleii/devenv/toolchain/arm-gcc/bin/../lib/gcc/arm-none-eabi/4.5.2/thumb2\libgcc.a(_divdi3.o)
 .ARM.exidx     0x080001ec        0x0 c:/belleii/devenv/toolchain/arm-gcc/bin/../lib/gcc/arm-none-eabi/4.5.2/thumb2\libgcc.a(_udivdi3.o)
                                  0x8 (size before relaxing)

.flashtext      0x080001ec        0x0
                0x080001ec                . = ALIGN (0x4)
 *(.flashtext)
                0x080001ec                . = ALIGN (0x4)

.text           0x080001f0    0x3006c
                0x080001f0                . = ALIGN (0x4)
 *(.text)
 .text          0x080001f0       0x98 CMakeFiles/firmware.dir/stm32f10x_it.c.obj
                0x080001f0                EXTI0_IRQHandler
                0x08000210                EXTI2_IRQHandler
                0x08000230                EXTI15_10_IRQHandler
                0x08000250                NMI_Handler
                0x0800025c                HardFault_Handler
                0x08000264                MemManage_Handler
                0x0800026c                BusFault_Handler
                0x08000274                UsageFault_Handler
                0x0800027c                DebugMon_Handler
 .text          0x08000288       0xe8 CMakeFiles/firmware.dir/lwip_test.c.obj
                0x08000288                raw_init_udp
                0x080002a0                raw_send_udp
                0x080002f4                udp_echo_recv
                0x08000340                raw_receive_udp
 .text          0x08000370      0x134 CMakeFiles/firmware.dir/udpecho.c.obj
                0x0800045c                udpecho_init
 .text          0x080004a4      0x61c CMakeFiles/firmware.dir/dac_spi_cs_mux.c.obj
                0x080004a4                dac_init
                0x080004d4                dac_setChannelValue_in_MicroScale
                0x08000604                dac_getChannelValue_in_MiliScale
                0x08000654                dac_getChannelValue_raw_value
                0x080008b0                dac_configure_control_register
                0x08000938                dac_set_monitoring_channel
                0x08000a38                dac_clear
 .text          0x08000ac0      0x89c CMakeFiles/firmware.dir/adc_spi_cs_mux.c.obj
                0x08000ac0                adc_configure_range_reg
                0x08000b54                adc_select_input_channel_read_channel_value_in_micro_scale
                0x080010c4                adc_select_input_channel_read_channel_value_in_micro_scale_optimised
 .text          0x0800135c      0x8dc CMakeFiles/firmware.dir/belle_II_PS_node_XME_Component.c.obj
                0x08001454                calibrate_subscription
                0x08001520                recalibrate_subscription
                0x080015f4                SWRegister_subscription
                0x08001644                belle_II_PS_node_XME_Component_create
                0x08001a14                belle_II_PS_node_XME_Component_activate
                0x08001a2c                belle_II_PS_node_XME_Component_deactivate
                0x08001a40                belle_II_PS_node_XME_Component_destroy
                0x08001bd0                sendData
 .text          0x08001c38      0x418 CMakeFiles/firmware.dir/help_functions_for_calibration.c.obj
                0x08001c38                calibrate_dac_value
                0x08001d90                calibrate_adc_value
                0x08001eac                set_channel_value
                0x08001f4c                read_channel_value
                0x08001fa8                read_channel_value_optimised
 .text          0x08002050      0xeec CMakeFiles/firmware.dir/application_logic.c.obj
                0x08002084                green_LED_OFF
                0x080020a4                green_LED_ON
                0x080020c4                emergency_shutdown
                0x08002114                write_enable
                0x08002184                write_disable
                0x080021a4                Reset_Latch
                0x08002200                mute_ovp_board
                0x08002260                reset_ovp_board
                0x08002310                enable_regulator
                0x08002360                disable_regulator
                0x080023b0                Switch_Power_ON
                0x080023d0                Switch_Power_OFF
                0x080023f0                emergency_shutdown_ups
                0x08002410                emergency_shutdown_thermal_status
                0x08002430                emergency_shutdown_ovp_status
                0x08002450                shutdown_when_no_connection_to_SC
                0x0800246c                get_voltage_and_current_data
                0x08002648                monitor_belle_node
                0x080026cc                log_info_belle_node
                0x08002794                calibrate_channel
                0x08002ea8                belle_application_task
 .text          0x08002f3c      0x3d0 CMakeFiles/firmware.dir/self_tests.c.obj
                0x08002f3c                self_test_check_hardware_current_limits
                0x0800305c                self_test_check_regulator_outputs
                0x08003160                self_test_dac_outputs
 .text          0x0800330c      0x7f0 CMakeFiles/firmware.dir/regulator_status_enable_pins.c.obj
                0x0800330c                OVP_MUX_PINS_init
                0x08003440                DAC_SWITCH_init
                0x080034ac                Green_LED_init
                0x080034e4                Write_Enable_pin_init
                0x0800351c                DCDC_POK_PIN_init
                0x08003540                latch_reset_pin_init
                0x08003564                LED_enable_pins_init
                0x08003588                Power_Switch_pin_init
                0x080035ac                regulators_enable_pins_init
                0x080035f0                regulators_status_pins_init
                0x080036ac                emergency_shutdown_status_pins_init
                0x0800370c                check_regulator_status_pins
                0x0800394c                check_regulator_enable_pins
                0x080039f8                enable_disable_regulator
                0x08003a5c                DAC_SWITCH_LOW
                0x08003a94                emergency_shutdown_check_status_pins
 .text          0x08003afc      0x384 CMakeFiles/firmware.dir/initialization_functions.c.obj
                0x08003afc                init_hardware
                0x08003d68                initialize_channel_information_data
 .text          0x08003e80      0xc58 CMakeFiles/firmware.dir/startup.c.obj
                0x08003e80                ramp_up_ramp_down_paralel
                0x08004138                ramp_up_ramp_down
                0x08004244                get_voltage
                0x08004278                diff_ccg1
                0x080042bc                diff_ccg2
                0x08004300                diff_ccg3
                0x08004344                startup_sequence
                0x08004a44                set_all_zero
 .text          0x08004ad8      0x1a4 CMakeFiles/firmware.dir/recalibrate_logic.c.obj
                0x08004ad8                write_recalibration_data_in_eeprom
 .text          0x08004c7c      0x57c CMakeFiles/firmware.dir/shutdown.c.obj
                0x08004c7c                shutdown_sequence
 .text          0x080051f8       0xc4 CMakeFiles/firmware.dir/alive_strobe.c.obj
                0x08005260                alive_strobe_init
 .text          0x080052bc      0x538 CMakeFiles/firmware.dir/belle_network_connection_Component.c.obj
                0x080052bc                belle_network_connection_Component_create
                0x080053b0                belle_network_connection_Component_activate
                0x080053c8                belle_network_connection_Component_deactivate
                0x080053dc                belle_network_connection_Component_destroy
                0x08005430                receive_heartbeatMultiNode
                0x08005554                belle_network_connection_Component_callback
                0x08005644                initHeartbeatTable
                0x080056cc                debugHeartbeatTable
                0x08005768                getCurrentTime
                0x08005778                getInterval
                0x080057c4                network_connection_task
 .text          0x080057f4       0xa8 CMakeFiles/firmware.dir/main.c.obj
                0x080057f4                init_chromosome
                0x08005854                main
 .text          0x0800589c       0x14 target\libxme_target_startup.a(startup_stm32f10x_cl.S.obj)
 .text          0x080058b0      0x1d8 target\libxme_target_startup.a(port.c.obj)
                0x080058b0                pxPortInitialiseStack
                0x08005910                SVC_Handler
                0x08005930                vPortStartFirstTask
                0x08005940                xPortStartScheduler
                0x0800597c                vPortEndScheduler
                0x08005988                vPortYieldFromISR
                0x080059a0                vPortEnterCritical
                0x080059c4                vPortExitCritical
                0x080059f0                PendSV_Handler
                0x08005a2c                SysTick_Handler
 .text          0x08005a88       0xa8 target\libxme_lwip_core.a(def.c.obj)
                0x08005a88                lwip_htons
                0x08005ab8                lwip_ntohs
                0x08005ad8                lwip_htonl
                0x08005b14                lwip_ntohl
 .text          0x08005b30      0xba0 target\libxme_lwip_core.a(pbuf.c.obj)
                0x08005c00                pbuf_alloc
                0x08005e48                pbuf_realloc
                0x08005f18                pbuf_header
                0x0800600c                pbuf_free
                0x080060c8                pbuf_clen
                0x080060fc                pbuf_ref
                0x0800612c                pbuf_cat
                0x08006188                pbuf_chain
                0x080061a8                pbuf_dechain
                0x08006204                pbuf_copy
                0x08006328                pbuf_copy_partial
                0x080063fc                pbuf_take
                0x080064a4                pbuf_coalesce
                0x080064f8                pbuf_get_at
                0x0800655c                pbuf_memcmp
                0x08006604                pbuf_memfind
                0x0800666c                pbuf_strstr
 .text          0x080066d0     0x1618 target\libxme_lwip_core.a(tcp.c.obj)
                0x080066d0                tcp_init
                0x080066dc                tcp_tmr
                0x08006988                tcp_close
                0x080069bc                tcp_shutdown
                0x08006a58                tcp_abandon
                0x08006b30                tcp_abort
                0x08006b4c                tcp_bind
                0x08006c58                tcp_listen_with_backlog
                0x08006d7c                tcp_update_rcv_ann_wnd
                0x08006e04                tcp_recved
                0x08006f08                tcp_connect
                0x080070e0                tcp_slowtmr
                0x08007590                tcp_fasttmr
                0x0800763c                tcp_process_refused_data
                0x08007724                tcp_segs_free
                0x0800774c                tcp_seg_free
                0x08007780                tcp_setprio
                0x0800779c                tcp_seg_copy
                0x080077e0                tcp_recv_null
                0x08007918                tcp_alloc
                0x08007a54                tcp_new
                0x08007a68                tcp_arg
                0x08007a84                tcp_recv
                0x08007aa0                tcp_sent
                0x08007abc                tcp_err
                0x08007ad8                tcp_accept
                0x08007af4                tcp_poll
                0x08007b1c                tcp_pcb_purge
                0x08007ba8                tcp_pcb_remove
                0x08007c58                tcp_next_iss
                0x08007c80                tcp_eff_send_mss
                0x08007cc4                tcp_debug_state_str
 .text          0x08007ce8     0x12e8 target\libxme_lwip_core.a(tcp_out.c.obj)
                0x08007dd0                tcp_send_fin
                0x080080e4                tcp_write
                0x08008584                tcp_enqueue_flags
                0x08008734                tcp_send_empty_ack
                0x080087b4                tcp_output
                0x08008bd4                tcp_rst
                0x08008ca8                tcp_rexmit_rto
                0x08008d14                tcp_rexmit
                0x08008db4                tcp_rexmit_fast
                0x08008e64                tcp_keepalive
                0x08008ec8                tcp_zero_window_probe
 .text          0x08008fd0      0x428 target\libxme_lwip_core.a(timers.c.obj)
                0x0800901c                tcp_timer_needed
                0x08009150                sys_timeouts_init
                0x080091c4                sys_timeout
                0x080092ac                sys_untimeout
                0x08009340                sys_timeouts_mbox_fetch
 .text          0x080093f8      0x79c target\libxme_lwip_core.a(udp.c.obj)
                0x080093f8                udp_init
                0x0800948c                udp_input
                0x08009740                udp_send
                0x08009768                udp_sendto
                0x080097c0                udp_sendto_if
                0x08009930                udp_bind
                0x080099fc                udp_connect
                0x08009aa0                udp_disconnect
                0x08009ad0                udp_recv
                0x08009af4                udp_remove
                0x08009b58                udp_new
 .text          0x08009b94     0x2280 target\libxme_lwip_core.a(sockets.c.obj)
                0x08009b94                lwip_socket_init
                0x08009e04                lwip_accept
                0x08009ff8                lwip_bind
                0x0800a0bc                lwip_close
                0x0800a118                lwip_connect
                0x0800a1f8                lwip_listen
                0x0800a2a4                lwip_recvfrom
                0x0800a5c0                lwip_read
                0x0800a5f4                lwip_recv
                0x0800a628                lwip_send
                0x0800a704                lwip_sendto
                0x0800a838                lwip_socket
                0x0800a8fc                lwip_write
                0x0800ab60                lwip_select
                0x0800b11c                lwip_shutdown
                0x0800b2ac                lwip_getpeername
                0x0800b2d4                lwip_getsockname
                0x0800b2fc                lwip_getsockopt
                0x0800b760                lwip_setsockopt
                0x0800bc2c                lwip_ioctl
                0x0800bd68                lwip_fcntl
 .text          0x0800be14      0x4a4 target\libxme_lwip_core.a(tcpip.c.obj)
                0x0800bf34                tcpip_input
                0x0800bfb0                tcpip_callback_with_block
                0x0800c040                tcpip_timeout
                0x0800c0ac                tcpip_untimeout
                0x0800c110                tcpip_apimsg
                0x0800c168                tcpip_callbackmsg_new
                0x0800c1ac                tcpip_callbackmsg_delete
                0x0800c1c8                tcpip_trycallback
                0x0800c1fc                tcpip_init
                0x0800c270                pbuf_free_callback
                0x0800c294                mem_free_callback
 .text          0x0800c2b8     0x1bd0 target\libxme_lwip_core.a(dhcp.c.obj)
                0x0800c51c                dhcp_coarse_tmr
                0x0800c590                dhcp_fine_tmr
                0x0800c834                dhcp_set_struct
                0x0800c85c                dhcp_cleanup
                0x0800c888                dhcp_start
                0x0800c9c4                dhcp_inform
                0x0800cae0                dhcp_network_changed
                0x0800cb68                dhcp_arp_reply
                0x0800cf1c                dhcp_renew
                0x0800d218                dhcp_release
                0x0800d34c                dhcp_stop
 .text          0x0800de88      0x9a4 target\libxme_lwip_core.a(dns.c.obj)
                0x0800de88                dns_init
                0x0800df10                dns_setserver
                0x0800df5c                dns_getserver
                0x0800df90                dns_tmr
                0x0800e7a8                dns_gethostbyname
 .text          0x0800e82c       0x30 target\libxme_lwip_core.a(init.c.obj)
                0x0800e82c                lwip_init
 .text          0x0800e85c      0x578 target\libxme_lwip_core.a(mem.c.obj)
                0x0800e928                mem_init
                0x0800e9b8                mem_free
                0x0800ea44                mem_trim
                0x0800ec00                mem_malloc
                0x0800ed8c                mem_calloc
 .text          0x0800edd4      0x140 target\libxme_lwip_core.a(memp.c.obj)
                0x0800edd4                memp_init
                0x0800ee7c                memp_malloc
                0x0800eecc                memp_free
 .text          0x0800ef14      0x52c target\libxme_lwip_core.a(netif.c.obj)
                0x0800ef14                netif_init
                0x0800ef20                netif_add
                0x0800efe8                netif_set_addr
                0x0800f018                netif_remove
                0x0800f0bc                netif_find
                0x0800f138                netif_set_ipaddr
                0x0800f1ec                netif_set_gw
                0x0800f214                netif_set_netmask
                0x0800f23c                netif_set_default
                0x0800f258                netif_set_up
                0x0800f2d8                netif_set_down
                0x0800f330                netif_set_status_callback
                0x0800f350                netif_set_link_up
                0x0800f3e0                netif_set_link_down
                0x0800f420                netif_set_link_callback
 .text          0x0800f440     0x2114 target\libxme_lwip_core.a(tcp_in.c.obj)
                0x0800f440                tcp_input
 .text          0x08011554      0xa14 target\libxme_lwip_core.a(api_lib.c.obj)
                0x08011554                netconn_new_with_proto_and_callback
                0x080115f0                netconn_delete
                0x08011630                netconn_getaddr
                0x080116bc                netconn_bind
                0x0801172c                netconn_connect
                0x0801179c                netconn_disconnect
                0x080117fc                netconn_listen_with_backlog
                0x08011860                netconn_accept
                0x08011a84                netconn_recv_tcp_pbuf
                0x08011abc                netconn_recv
                0x08011bb0                netconn_recved
                0x08011bf8                netconn_sendto
                0x08011c44                netconn_send
                0x08011cac                netconn_write_partly
                0x08011e00                netconn_close
                0x08011e20                netconn_shutdown
                0x08011e68                netconn_join_leave_group
                0x08011edc                netconn_gethostbyname
 .text          0x08011f68     0x18c4 target\libxme_lwip_core.a(api_msg.c.obj)
                0x08012740                do_newconn
                0x08012778                netconn_alloc
                0x0801285c                netconn_free
                0x08012b6c                do_delconn
                0x08012c9c                do_bind
                0x08012e40                do_connect
                0x08012f90                do_disconnect
                0x08012fdc                do_listen
                0x0801311c                do_send
                0x08013234                do_recv
                0x08013498                do_write
                0x0801353c                do_getaddr
                0x08013638                do_close
                0x080136ec                do_join_leave_group
                0x080137e0                do_gethostbyname
 .text          0x0801382c      0x2dc target\libxme_lwip_core.a(netbuf.c.obj)
                0x0801382c                netbuf_new
                0x08013888                netbuf_delete
                0x080138cc                netbuf_alloc
                0x08013934                netbuf_free
                0x0801396c                netbuf_ref
                0x080139f4                netbuf_chain
                0x08013a34                netbuf_data
                0x08013a98                netbuf_next
                0x08013ae8                netbuf_first
 .text          0x08013b08      0x314 target\libxme_lwip_core.a(raw.c.obj)
                0x08013b08                raw_input
                0x08013bd0                raw_bind
                0x08013c00                raw_connect
                0x08013c30                raw_recv
                0x08013c54                raw_sendto
                0x08013d38                raw_send
                0x08013d60                raw_remove
                0x08013dc4                raw_new
 .text          0x08013e1c      0x33c target\libxme_lwip_core_ipv4.a(icmp.c.obj)
                0x08013e1c                icmp_input
                0x08014040                icmp_dest_unreach
                0x08014064                icmp_time_exceeded
 .text          0x08014158      0x830 target\libxme_lwip_core_ipv4.a(igmp.c.obj)
                0x08014158                igmp_init
                0x08014180                igmp_start
                0x080141e0                igmp_stop
                0x0801426c                igmp_report_groups
                0x080142a8                igmp_lookfor_group
                0x080143f8                igmp_input
                0x08014580                igmp_joingroup
                0x08014674                igmp_leavegroup
                0x08014758                igmp_tmr
 .text          0x08014988      0x484 target\libxme_lwip_core_ipv4.a(inet_chksum.c.obj)
                0x08014a6c                inet_chksum_pseudo
                0x08014bbc                inet_chksum_pseudo_partial
                0x08014d28                inet_chksum
                0x08014d50                inet_chksum_pbuf
 .text          0x08014e0c      0x5a8 target\libxme_lwip_core_ipv4.a(ip.c.obj)
                0x08014e0c                ip_route
                0x08014e8c                ip_input
                0x08015190                ip_output_if
                0x080151d0                ip_output_if_opt
                0x08015368                ip_output
 .text          0x080153b4      0x51c target\libxme_lwip_core_ipv4.a(ip_addr.c.obj)
                0x080153b4                ip4_addr_isbroadcast
                0x0801543c                ip4_addr_netmask_valid
                0x080154a4                ipaddr_addr
                0x080154d0                ipaddr_aton
                0x08015750                ipaddr_ntoa
                0x08015774                ipaddr_ntoa_r
 .text          0x080158d0      0x92c target\libxme_lwip_core_ipv4.a(ip_frag.c.obj)
                0x080158d0                ip_reass_tmr
                0x08015da8                ip_reass
                0x0801601c                ip_frag
 .text          0x080161fc       0xac target\libxme_lwip_netif_ethernet.a(enet.c.obj)
                0x080161fc                Get_MAC_Address
                0x08016254                EnetGetIPAddr
                0x08016264                EnetInit
 .text          0x080162a8      0x378 target\libxme_lwip_netif_ethernet.a(lwiplib.c.obj)
                0x08016450                lwIPInit
                0x0801649c                ETH_IRQHandler
                0x080164d0                lwIPLocalIPAddrGet
                0x080164e4                lwIPLocalNetMaskGet
                0x080164f8                lwIPLocalGWAddrGet
                0x080165d8                lwIPNetworkConfigChange
 .text          0x08016620      0x794 target\libxme_lwip_netif_ethernet.a(ethernetif.c.obj)
                0x08016aa0                stm32_ethernetif_input
                0x08016b38                ethernetif_init
                0x08016ba8                ETH_RxPkt_ChainMode
                0x08016cb0                ETH_TxPkt_ChainMode
                0x08016d54                ETH_GetCurrentTxBuffer
                0x08016d6c                vEMACWaitForInput
 .text          0x08016db4      0x490 target\libxme_lwip_netif_ethernet.a(sys_arch.c.obj)
                0x08016db4                lwip_rand_arch
                0x08016de4                sys_mbox_new
                0x08016e3c                sys_mbox_free
                0x08016e68                sys_mbox_post
                0x08016e98                sys_mbox_trypost
                0x08016edc                sys_arch_mbox_fetch
                0x08016f70                sys_arch_mbox_tryfetch
                0x08016fb4                sys_sem_new
                0x0801703c                sys_arch_sem_wait
                0x080170bc                sys_sem_signal
                0x080170e4                sys_sem_free
                0x08017108                sys_init
                0x08017120                sys_thread_new
                0x08017190                sys_arch_protect
                0x080171a0                sys_arch_unprotect
                0x080171b4                sys_assert
                0x080171c4                sys_mbox_valid
                0x080171e8                sys_mbox_set_invalid
                0x08017204                sys_sem_valid
                0x08017228                sys_sem_set_invalid
 .text          0x08017244     0x23d0 target\libxme_lwip_netif_ethernet.a(stm32_eth.c.obj)
                0x08017244                ETH_DeInit
                0x08017264                ETH_Init
                0x08017618                ETH_StructInit
                0x080177c0                ETH_Start
                0x080177ec                ETH_HandleTxPkt
                0x08017914                ETH_HandleRxPkt
                0x08017a64                ETH_GetRxPktSize
                0x08017ac0                ETH_DropRxPkt
                0x08017b3c                ETH_ReadPHYRegister
                0x08017bf0                ETH_WritePHYRegister
                0x08017cac                ETH_PHYLoopBackCmd
                0x08017d14                ETH_MACTransmissionCmd
                0x08017d4c                ETH_MACReceptionCmd
                0x08017d84                ETH_GetFlowControlBusyStatus
                0x08017dc0                ETH_InitiatePauseControlFrame
                0x08017ddc                ETH_BackPressureActivationCmd
                0x08017e14                ETH_GetMACFlagStatus
                0x08017e50                ETH_GetMACITStatus
                0x08017e8c                ETH_MACITConfig
                0x08017ed0                ETH_MACAddressConfig
                0x08017f4c                ETH_GetMACAddress
                0x08017fd0                ETH_MACAddressPerfectFilterCmd
                0x08018020                ETH_MACAddressFilterConfig
                0x0801806c                ETH_MACAddressMaskBytesFilterConfig
                0x080180b4                ETH_DMATxDescChainInit
                0x08018154                ETH_DMATxDescRingInit
                0x080181f0                ETH_GetDMATxDescFlagStatus
                0x0801822c                ETH_GetDMATxDescCollisionCount
                0x0801824c                ETH_SetDMATxDescOwnBit
                0x0801826c                ETH_DMATxDescTransmitITConfig
                0x080182a4                ETH_DMATxDescFrameSegmentConfig
                0x080182c4                ETH_DMATxDescChecksumInsertionConfig
                0x080182e4                ETH_DMATxDescCRCCmd
                0x0801831c                ETH_DMATxDescEndOfRingCmd
                0x08018354                ETH_DMATxDescSecondAddressChainedCmd
                0x0801838c                ETH_DMATxDescShortFramePaddingCmd
                0x080183c4                ETH_DMATxDescTimeStampCmd
                0x080183fc                ETH_DMATxDescBufferSizeConfig
                0x08018428                ETH_DMARxDescChainInit
                0x080184d0                ETH_DMARxDescRingInit
                0x08018580                ETH_GetDMARxDescFlagStatus
                0x080185bc                ETH_SetDMARxDescOwnBit
                0x080185dc                ETH_GetDMARxDescFrameLength
                0x08018604                ETH_DMARxDescReceiveITConfig
                0x0801863c                ETH_DMARxDescEndOfRingCmd
                0x08018674                ETH_DMARxDescSecondAddressChainedCmd
                0x080186ac                ETH_GetDMARxDescBufferSize
                0x080186e8                ETH_SoftwareReset
                0x0801870c                ETH_GetSoftwareResetStatus
                0x0801874c                ETH_GetDMAFlagStatus
                0x08018790                ETH_DMAClearFlag
                0x080187b4                ETH_GetDMAITStatus
                0x080187f8                ETH_DMAClearITPendingBit
                0x0801881c                ETH_GetTransmitProcessState
                0x0801883c                ETH_GetReceiveProcessState
                0x0801885c                ETH_FlushTransmitFIFO
                0x08018888                ETH_GetFlushTransmitFIFOStatus
                0x080188c8                ETH_DMATransmissionCmd
                0x08018920                ETH_DMAReceptionCmd
                0x08018978                ETH_DMAITConfig
                0x080189d8                ETH_GetDMAOverflowStatus
                0x08018a18                ETH_GetRxOverflowMissedFrameCounter
                0x08018a40                ETH_GetBufferUnavailableMissedFrameCounter
                0x08018a60                ETH_GetCurrentTxDescStartAddress
                0x08018a7c                ETH_GetCurrentRxDescStartAddress
                0x08018a98                ETH_GetCurrentTxBufferAddress
                0x08018ab4                ETH_GetCurrentRxBufferAddress
                0x08018ad0                ETH_ResumeDMATransmission
                0x08018af0                ETH_ResumeDMAReception
                0x08018b10                ETH_ResetWakeUpFrameFilterRegisterPointer
                0x08018b2c                ETH_SetWakeUpFrameFilterRegister
                0x08018b70                ETH_GlobalUnicastWakeUpCmd
                0x08018ba8                ETH_GetPMTFlagStatus
                0x08018be4                ETH_WakeUpFrameDetectionCmd
                0x08018c1c                ETH_MagicPacketDetectionCmd
                0x08018c54                ETH_PowerDownCmd
                0x08018c8c                ETH_MMCCounterFreezeCmd
                0x08018ccc                ETH_MMCResetOnReadCmd
                0x08018d0c                ETH_MMCCounterRolloverCmd
                0x08018d4c                ETH_MMCCountersReset
                0x08018d6c                ETH_MMCITConfig
                0x08018dfc                ETH_GetMMCITStatus
                0x08018e84                ETH_GetMMCRegister
                0x08018ea4                ETH_EnablePTPTimeStampAddend
                0x08018ec4                ETH_EnablePTPTimeStampInterruptTrigger
                0x08018ee4                ETH_EnablePTPTimeStampUpdate
                0x08018f04                ETH_InitializePTPTimeStamp
                0x08018f24                ETH_PTPUpdateMethodConfig
                0x08018f64                ETH_PTPTimeStampCmd
                0x08018fa4                ETH_GetPTPFlagStatus
                0x08018fe4                ETH_SetPTPSubSecondIncrement
                0x08019004                ETH_SetPTPTimeStampUpdate
                0x08019034                ETH_SetPTPTimeStampAddend
                0x08019054                ETH_SetPTPTargetTime
                0x0801907c                ETH_GetPTPRegister
                0x0801909c                ETH_DMAPTPTxDescChainInit
                0x0801917c                ETH_DMAPTPRxDescChainInit
                0x08019264                ETH_HandlePTPTxPkt
                0x0801944c                ETH_HandlePTPRxPkt
 .text          0x08019614      0x7f8 target\libxme_freertos_kernel.a(queue.c.obj)
                0x08019614                xQueueGenericCreate
                0x080196e8                xQueueCreateMutex
                0x08019784                xQueueGenericSend
                0x080198a4                xQueueGenericSendFromISR
                0x08019934                xQueueGenericReceive
                0x08019abc                xQueueReceiveFromISR
                0x08019b50                uxQueueMessagesWaiting
                0x08019b74                uxQueueMessagesWaitingFromISR
                0x08019b90                vQueueDelete
                0x08019d90                xQueueIsQueueEmptyFromISR
                0x08019de4                xQueueIsQueueFullFromISR
 .text          0x08019e0c     0x10f4 target\libxme_freertos_kernel.a(tasks.c.obj)
                0x08019e0c                xTaskGenericCreate
                0x08019f6c                vTaskDelete
                0x0801a010                vTaskDelayUntil
                0x0801a0b0                vTaskDelay
                0x0801a108                uxTaskPriorityGet
                0x0801a140                vTaskPrioritySet
                0x0801a254                vTaskSuspend
                0x0801a2f8                xTaskIsTaskSuspended
                0x0801a344                vTaskResume
                0x0801a3e0                xTaskResumeFromISR
                0x0801a4a4                vTaskStartScheduler
                0x0801a510                vTaskEndScheduler
                0x0801a530                vTaskSuspendAll
                0x0801a54c                xTaskResumeAll
                0x0801a660                xTaskGetTickCount
                0x0801a684                xTaskGetTickCountFromISR
                0x0801a6b8                uxTaskGetNumberOfTasks
                0x0801a6cc                vTaskIncrementTick
                0x0801a808                vTaskSwitchContext
                0x0801a8b0                vTaskPlaceOnEventList
                0x0801a918                xTaskRemoveFromEventList
                0x0801a9cc                vTaskSetTimeOutState
                0x0801a9f8                xTaskCheckForTimeOut
                0x0801aa8c                vTaskMissedYield
                0x0801ad4c                uxTaskGetStackHighWaterMark
                0x0801ada4                xTaskGetCurrentTaskHandle
                0x0801adc4                vTaskPriorityInherit
                0x0801ae78                vTaskPriorityDisinherit
 .text          0x0801af00      0x17c target\libxme_freertos_kernel.a(list.c.obj)
                0x0801af00                vListInitialise
                0x0801af48                vListInitialiseItem
                0x0801af64                vListInsertEnd
                0x0801afb4                vListInsert
                0x0801b028                vListRemove
 .text          0x0801b07c      0x1f8 target\libxme_freertos_memmang.a(heap_2.c.obj)
                0x0801b07c                pvPortMalloc
                0x0801b1d8                vPortFree
                0x0801b254                xPortGetFreeHeapSize
                0x0801b268                vPortInitialiseBlocks
 .text          0x0801b274      0x434 target\libxme_target_bsp.a(enet_arch.c.obj)
                0x0801b274                bsp_eth_gpio_init
                0x0801b3e4                Set_MAC_Address
                0x0801b400                ETH_driver_init
                0x0801b420                bsp_eth_phy_addr
                0x0801b430                Ethernet_Configuration
                0x0801b564                NVIC_Configuration
                0x0801b5a8                NVIC_Configuration_Emergency_Bits
 .text          0x0801b6a8      0x32c target\libxme_target_bsp.a(system_stm32f10x.c.obj)
                0x0801b6a8                SystemInit
                0x0801b724                SystemCoreClockUpdate
 .text          0x0801b9d4      0x10c target\libxme_hal_dio.a(dio_arch.c.obj)
                0x0801b9d4                xme_hal_dio_button_init
                0x0801ba18                xme_hal_dio_read_button
                0x0801ba3c                xme_hal_dio_led_init
                0x0801ba80                xme_hal_dio_led_set
                0x0801baa8                xme_hal_dio_led_toggle
 .text          0x0801bae0      0x1c8 target\libbelle_drivers.a(mux.c.obj)
                0x0801bae0                mux_init
                0x0801bb64                mux_setEnable
                0x0801bbcc                mux_selectChannel
                0x0801bc68                mux_fini
 .text          0x0801bca8        0x0 target\libbelle_drivers.a(mux_inst.c.obj)
 .text          0x0801bca8       0x40 target\libbelle_drivers.a(gpio_config.c.obj)
                0x0801bca8                belle_gpio_pin_init
 .text          0x0801bce8      0x3fc target\libbelle_drivers.a(spi.c.obj)
                0x0801bce8                spi_init
                0x0801be88                spi_set_cselect
                0x0801bea4                spi_ready
                0x0801bed0                spi_data_available
                0x0801befc                spi_send_receive_data
                0x0801c0a0                spi_fini
 .text          0x0801c0e4        0x0 target\libbelle_drivers.a(spi_inst.c.obj)
 .text          0x0801c0e4      0x2ac target\libbelle_drivers.a(adc_ad7322.c.obj)
                0x0801c0e4                ad7322_sign_extend_number
                0x0801c11c                ad7322_write_register
                0x0801c16c                ad7322_read_spi_data
                0x0801c1bc                ad7322_process_spi_data
                0x0801c270                ad7322_configure_range_reg
                0x0801c2d4                ad7322_select_input_channel_read_channel_value_in_micro_scale
 .text          0x0801c390        0x0 target\libbelle_drivers.a(adc_ad7322_inst.c.obj)
 .text          0x0801c390      0x9d8 target\libbelle_drivers.a(dac_ad5392.c.obj)
                0x0801c390                dac_ad5392_init
                0x0801c4d8                dac_ad5392_setChannelConfiguration
                0x0801c5b0                dac_ad5392_getChannelConfiguration
                0x0801c690                dac_ad5392_setChannelRawValue
                0x0801c73c                dac_ad5392_setChannelValue_in_MicroScale
                0x0801c7e0                dac_ad5392_Scale_Input_DAC_Data_in_MicroScale
                0x0801c840                dac_ad5392_getChannelValue_SetConfiguration
                0x0801c8c4                dac_ad5392_getChannelValue_GetData
                0x0801c8f4                dac_ad5392_getChannelValue
                0x0801c98c                dac_ad5392_configure_control_register
                0x0801c9f4                dac_ad5392_set_monitoring_channel
                0x0801ca70                dac_ad5392_stop
                0x0801caf8                dac_ad5392_powerDown
                0x0801cb90                dac_ad5392_powerUp
                0x0801cc00                dac_ad5392_clear
                0x0801ccac                dac_ad5392_clear_outputs_to_zero
                0x0801cd08                dac_ad5392_fini
 .text          0x0801cd68        0x0 target\libbelle_drivers.a(dac_ad5392_inst.c.obj)
 .text          0x0801cd68      0x1d8 target\libbelle_drivers.a(adc_intern_stm32f107.c.obj)
                0x0801cd68                stm32f107_adc_init
                0x0801ce34                stm32f107_adc_done
                0x0801ce60                stm32f107_adc_conv
                0x0801ceb8                stm32f107_adc_rawValue
                0x0801cef0                stm32f107_adc_volt
 .text          0x0801cf40        0x0 target\libbelle_drivers.a(adc_intern_stm32f107_inst.c.obj)
 .text          0x0801cf40       0xbc target\libbelle_drivers.a(i2c.c.obj)
                0x0801cf40                i2c_init
 .text          0x0801cffc        0x0 target\libbelle_drivers.a(i2c_inst.c.obj)
 .text          0x0801cffc      0x6e0 target\libbelle_drivers.a(eeprom.c.obj)
                0x0801cffc                eeprom_write_page
                0x0801d144                eeprom_read_page
                0x0801d2f8                wait_eeprom_standby_state
                0x0801d384                eeprom_crc8
                0x0801d414                calibration_structure_padding
                0x0801d440                eeprom_write_calibration_page_values
                0x0801d498                eeprom_read_calibration_page_values
                0x0801d4e8                eeprom_calibration_page_values_padding
                0x0801d514                eeprom_read_mac_address
                0x0801d564                eeprom_mac_address_padding
                0x0801d598                eeprom_write_mac_address
                0x0801d5f4                eeprom_read_firmware_version
                0x0801d648                eeprom_firmware_version_padding
                0x0801d67c                eeprom_write_firmware_version
 .text          0x0801d6dc        0x0 target\libbelle_drivers.a(eeprom_inst.c.obj)
 .text          0x0801d6dc      0x814 target\libxme_stm32f0xspl_spi.a(stm32f10x_spi.c.obj)
                0x0801d6dc                SPI_I2S_DeInit
                0x0801d75c                SPI_Init
                0x0801d7f4                I2S_Init
                0x0801da04                SPI_StructInit
                0x0801da60                I2S_StructInit
                0x0801daa4                SPI_Cmd
                0x0801dae4                I2S_Cmd
                0x0801db24                SPI_I2S_ITConfig
                0x0801db94                SPI_I2S_DMACmd
                0x0801dbe0                SPI_I2S_SendData
                0x0801dbfc                SPI_I2S_ReceiveData
                0x0801dc18                SPI_NSSInternalSoftwareConfig
                0x0801dc5c                SPI_SSOutputCmd
                0x0801dc9c                SPI_DataSizeConfig
                0x0801dcd4                SPI_TransmitCRC
                0x0801dcf8                SPI_CalculateCRC
                0x0801dd38                SPI_GetCRC
                0x0801dd6c                SPI_GetCRCPolynomial
                0x0801dd88                SPI_BiDirectionalLineConfig
                0x0801ddc8                SPI_I2S_GetFlagStatus
                0x0801de08                SPI_I2S_ClearFlag
                0x0801de2c                SPI_I2S_GetITStatus
                0x0801deb8                SPI_I2S_ClearITPendingBit
 .text          0x0801def0      0x9ec target\libxme_stm32f0xspl_i2c.a(stm32f10x_i2c.c.obj)
                0x0801def0                I2C_DeInit
                0x0801df40                I2C_Init
                0x0801e0f0                I2C_StructInit
                0x0801e134                I2C_Cmd
                0x0801e174                I2C_DMACmd
                0x0801e1b4                I2C_DMALastTransferCmd
                0x0801e1f4                I2C_GenerateSTART
                0x0801e234                I2C_GenerateSTOP
                0x0801e274                I2C_AcknowledgeConfig
                0x0801e2b4                I2C_OwnAddress2Config
                0x0801e2f8                I2C_DualAddressCmd
                0x0801e338                I2C_GeneralCallCmd
                0x0801e378                I2C_ITConfig
                0x0801e3c4                I2C_SendData
                0x0801e3e4                I2C_ReceiveData
                0x0801e400                I2C_Send7bitAddress
                0x0801e43c                I2C_ReadRegister
                0x0801e46c                I2C_SoftwareResetCmd
                0x0801e4b4                I2C_NACKPositionConfig
                0x0801e4f4                I2C_SMBusAlertConfig
                0x0801e534                I2C_TransmitPEC
                0x0801e574                I2C_PECPositionConfig
                0x0801e5b4                I2C_CalculatePEC
                0x0801e5f4                I2C_GetPEC
                0x0801e618                I2C_ARPCmd
                0x0801e658                I2C_StretchClockCmd
                0x0801e698                I2C_FastModeDutyCycleConfig
                0x0801e6d8                I2C_CheckEvent
                0x0801e748                I2C_GetLastEvent
                0x0801e798                I2C_GetFlagStatus
                0x0801e814                I2C_ClearFlag
                0x0801e844                I2C_GetITStatus
                0x0801e8ac                I2C_ClearITPendingBit
 .text          0x0801e8dc      0xb34 target\libxme_stm32f0xspl_adc.a(stm32f10x_adc.c.obj)
                0x0801e8dc                ADC_DeInit
                0x0801e95c                ADC_Init
                0x0801ea18                ADC_StructInit
                0x0801ea5c                ADC_Cmd
                0x0801ea94                ADC_DMACmd
                0x0801eacc                ADC_ITConfig
                0x0801eb14                ADC_ResetCalibration
                0x0801eb34                ADC_GetResetCalibrationStatus
                0x0801eb6c                ADC_StartCalibration
                0x0801eb8c                ADC_GetCalibrationStatus
                0x0801ebc4                ADC_SoftwareStartConvCmd
                0x0801ebfc                ADC_GetSoftwareStartConvStatus
                0x0801ec34                ADC_DiscModeChannelCountConfig
                0x0801ec80                ADC_DiscModeCmd
                0x0801ecb8                ADC_RegularChannelConfig
                0x0801ee88                ADC_ExternalTrigConvCmd
                0x0801eec0                ADC_GetConversionValue
                0x0801eedc                ADC_GetDualModeConversionValue
                0x0801eef0                ADC_AutoInjectedConvCmd
                0x0801ef28                ADC_InjectedDiscModeCmd
                0x0801ef60                ADC_ExternalTrigInjectedConvConfig
                0x0801ef98                ADC_ExternalTrigInjectedConvCmd
                0x0801efd0                ADC_SoftwareStartInjectedConvCmd
                0x0801f008                ADC_GetSoftwareStartInjectedConvCmdStatus
                0x0801f040                ADC_InjectedChannelConfig
                0x0801f190                ADC_InjectedSequencerLengthConfig
                0x0801f1dc                ADC_SetInjectedOffset
                0x0801f210                ADC_GetInjectedConversionValue
                0x0801f244                ADC_AnalogWatchdogCmd
                0x0801f280                ADC_AnalogWatchdogThresholdsConfig
                0x0801f2a8                ADC_AnalogWatchdogSingleChannelConfig
                0x0801f2e4                ADC_TempSensorVrefintCmd
                0x0801f31c                ADC_GetFlagStatus
                0x0801f358                ADC_ClearFlag
                0x0801f378                ADC_GetITStatus
                0x0801f3e0                ADC_ClearITPendingBit
 .text          0x0801f410      0x1b4 target\libxme_core_core.a(core.c.obj)
                0x0801f410                xme_core_init
                0x0801f510                xme_core_run
                0x0801f540                xme_core_shutdown
                0x0801f558                xme_core_isShutdownInProgress
                0x0801f578                xme_core_fini
 .text          0x0801f5c4      0x94c target\libxme_core_core.a(dcc.c.obj)
                0x0801f5c4                _xme_core_dcc_publishTopicWithoutAnnouncement
                0x0801f6cc                _xme_core_dcc_unpublishTopicWithoutAnnouncement
                0x0801f7a0                _xme_core_dcc_subscribeTopicWithoutAnnouncement
                0x0801f8ac                _xme_core_dcc_unsubscribeTopicWithoutAnnouncement
                0x0801f980                xme_core_dcc_init
                0x0801f990                xme_core_dcc_fini
                0x0801f99c                xme_core_dcc_publishTopic
                0x0801fa94                xme_core_dcc_unpublishTopic
                0x0801fb2c                xme_core_dcc_getComponentFromSubscriptionHandle
                0x0801fba0                xme_core_dcc_getPortFromSubscriptionHandle
                0x0801fc14                xme_core_dcc_getComponentFromPublicationHandle
                0x0801fc88                xme_core_dcc_getPortFromPublicationHandle
                0x0801fcfc                xme_core_dcc_sendTopicData
                0x0801fd80                xme_core_dcc_subscribeTopic
                0x0801fe78                xme_core_dcc_unsubscribeTopic
 .text          0x0801ff10     0x2c68 target\libxme_core_core.a(directory.c.obj)
                0x0801ff10                xme_core_directory_create
                0x08020270                xme_core_directory_activate
                0x08020288                xme_core_directory_deactivate
                0x0802029c                xme_core_directory_destroy
                0x0802045c                xme_core_directory_getDataChannel
                0x08020900                xme_core_directory_addPublication
                0x08020b2c                xme_core_directory_removePublication
                0x08020d64                xme_core_directory_addSubscription
                0x08020f48                xme_core_directory_removeSubscription
                0x08021178                xme_core_directory_addRequestHandler
                0x08021470                xme_core_directory_removeRequestHandler
                0x0802173c                xme_core_directory_addRequest
                0x080219bc                xme_core_directory_removeRequest
 .text          0x08022b78      0xd0c target\libxme_core_core.a(interfaceManager.c.obj)
                0x08022b78                xme_core_interfaceManager_init
                0x08022c3c                xme_core_interfaceManager_fini
                0x08022cd4                xme_core_interfaceManager_read_non_blocking
                0x08022e5c                xme_core_interfaceManager_read_blocking
                0x08022ff4                xme_core_interfaceManager_write_non_blocking
                0x080230ec                xme_core_interfaceManager_write_blocking
                0x08023224                xme_core_interfaceManager_join_channel
                0x080233c4                xme_core_interfaceManager_leave_channel
                0x08023504                xme_core_interfaceManager_addInterface
                0x0802358c                xme_core_interfaceManager_removeInterface
                0x08023600                xme_core_interfaceManager_get_available_data_size
                0x08023668                xme_core_interfaceManager_registerCallback
                0x08023684                xme_core_interfaceManager_clearCallback
                0x0802369c                xme_core_interfaceManager_deviceCallback
                0x080236cc                xme_core_interfaceManager_provide_channel
                0x08023738                xme_core_interfaceManager_unprovide_channel
                0x080237a4                xme_core_interfaceManager_add_channel_to_phy_address_mapping
                0x08023814                xme_core_interfaceManager_remove_channel_to_phy_address_mapping
 .text          0x08023884      0x660 target\libxme_core_core.a(md.c.obj)
                0x08023884                xme_core_md_init
                0x080238b8                xme_core_md_fini
                0x080238d8                xme_core_md_createTopicMetaData
                0x08023968                xme_core_md_isTopicMetaDataHandleValid
                0x080239d0                xme_core_md_fetchTopicMetaDataItem
                0x08023b3c                xme_core_md_setTopicMetaDataString
                0x08023b98                xme_core_md_setTopicMetaDataNumeric
                0x08023bf4                xme_core_md_setTopicMetaDataUnsigned
                0x08023c50                xme_core_md_setTopicMetaDataDecimal
                0x08023cac                xme_core_md_topicMetaDataPropertyCount
                0x08023d28                xme_core_md_removeTopicMetaData
                0x08023ddc                xme_core_md_destroyTopicMetaData
                0x08023e78                xme_core_md_matchesTopicMetData
                0x08023e98                xme_core_md_compareMetData
                0x08023ec4                xme_core_md_filterAcceptsMetdata
 .text          0x08023ee4      0x428 target\libxme_core_core.a(nodeManager.c.obj)
                0x08023ee4                xme_core_nodeManager_create
                0x0802409c                xme_core_nodeManager_activate
                0x080240c8                xme_core_nodeManager_deactivate
                0x080240f0                xme_core_nodeManager_destroy
                0x08024134                xme_core_nodeManager_taskPerformLogin
                0x080241d4                xme_core_nodeManager_receiveLoginResponse
                0x080242b0                xme_core_nodeManager_getNodeId
                0x080242d4                xme_core_nodeManager_getDeviceGuid
                0x080242f0                xme_core_nodeManager_getDeviceType
 .text          0x0802430c      0x558 target\libxme_core_core.a(net_plugin.c.obj)
                0x0802430c                xme_core_net_plugin_init
                0x08024374                xme_core_net_plugin_fini
                0x0802439c                xme_core_net_plugin_read_non_blocking
                0x08024408                xme_core_net_plugin_read_blocking
                0x08024474                xme_core_net_plugin_write_non_blocking
                0x080244e4                xme_core_net_plugin_write_blocking
                0x08024554                xme_core_net_plugin_join_channel
                0x080245ac                xme_core_net_plugin_leave_channel
                0x08024604                xme_core_net_plugin_get_interface
                0x08024618                xme_core_net_plugin_get_available_data_size
                0x08024630                xme_core_net_plugin_register_callback
                0x0802464c                xme_core_net_plugin_clear_callback
                0x08024664                xme_core_net_plugin_interfaceCallback
                0x0802469c                xme_core_net_plugin_wait_for_state_change
                0x080246f0                xme_core_net_plugin_taskReceiveData
                0x08024764                xme_core_net_plugin_startWorkingThread
                0x080247c0                xme_core_net_plugin_stopWorkingThread
                0x080247fc                xme_core_net_plugin_provide_channel
                0x08024814                xme_core_net_plugin_unprovide_channel
                0x0802482c                xme_core_net_plugin_add_channel_to_phy_address_mapping
                0x08024848                xme_core_net_plugin_remove_channel_to_phy_address_mapping
 .text          0x08024864     0x17e8 target\libxme_core_core.a(net_plugin_tcp.c.obj)
                0x08024864                xme_core_net_plugin_tcp_init
                0x08024934                xme_core_net_plugin_tcp_fini
                0x080249b0                xme_core_net_plugin_tcp_read_non_blocking
                0x08024b68                xme_core_net_plugin_tcp_read_blocking
                0x08024d20                xme_core_net_plugin_tcp_write_non_blocking
                0x08024dbc                xme_core_net_plugin_tcp_write_blocking
                0x08024e3c                xme_core_net_plugin_tcp_join_channel
                0x08024f10                xme_core_net_plugin_tcp_leave_channel
                0x08024fec                xme_core_net_plugin_tcp_get_interface
                0x08025000                xme_core_net_plugin_tcp_get_available_data_size
                0x0802515c                xme_core_net_plugin_tcp_register_callback
                0x08025178                xme_core_net_plugin_tcp_clear_callback
                0x08025190                xme_core_net_plugin_tcp_interfaceCallback
                0x080251c8                xme_core_net_plugin_tcp_wait_for_state_change
                0x08025294                connect_reader
                0x080252ec                xme_core_net_plugin_tcp_connectingTask
                0x08025364                xme_core_net_plugin_tcp_taskWorking
                0x08025b18                xme_core_net_plugin_tcp_startWorkingThread
                0x08025bb0                xme_core_net_plugin_tcp_stopWorkingThread
                0x08025c14                xme_core_net_plugin_tcp_provide_channel
                0x08025cfc                xme_core_net_plugin_tcp_unprovide_channel
                0x08025e28                xme_core_net_plugin_tcp_add_channel_to_phy_address_mapping
                0x08025f00                xme_core_net_plugin_tcp_remove_channel_to_phy_address_mapping
                0x08025fc4                xme_core_net_plugin_tcp_hostname_and_port_for_channel
 .text          0x0802604c      0x124 target\libxme_core_core.a(packet.c.obj)
                0x0802604c                xme_core_packet_sample_create_payloadSize
                0x080260a4                xme_core_packet_sample_create_totalSize
                0x080260c4                xme_core_packet_sample_getPayloadSize
                0x080260e8                xme_core_packet_sample_getCompleteSize
                0x08026108                xme_core_packet_sample_header
                0x0802612c                xme_core_packet_sample_payload
                0x08026154                xme_core_packet_sample_destroy
 .text          0x08026170     0x1224 target\libxme_core_core.a(resourceManager.c.obj)
                0x08026170                xme_core_resourceManager_init
                0x08026498                xme_core_resourceManager_create
                0x08026500                xme_core_resourceManager_activate
                0x08026518                xme_core_resourceManager_deactivate
                0x0802652c                xme_core_resourceManager_destroy
                0x08026564                xme_core_resourceManager_activateComponents
                0x08026640                xme_core_resourceManager_deactivateComponents
                0x08026700                xme_core_resourceManager_fini
                0x08026964                xme_core_resourceManager_setCurrentComponentId
                0x080269a0                xme_core_resourceManager_getCurrentComponentId
                0x080269d4                xme_core_resourceManager_getComponentName
                0x08026a48                xme_core_resourceManager_scheduleTask
                0x08026a78                xme_core_resourceManager_killTask
                0x08026a98                xme_core_resourceManager_idle
                0x08026aa8                xme_core_resourceManager_runTask
                0x08026ab4                xme_core_resourceManager_notifyComponent
                0x08026f78                xme_core_resourceManager_addPublicationPort
                0x08026fa0                xme_core_resourceManager_addSubscriptionPort
                0x08026fdc                xme_core_resourceManager_addRequestSenderPort
                0x08027004                xme_core_resourceManager_addResponseHandlerPort
                0x08027040                xme_core_resourceManager_addRequestHandlerPort
                0x0802707c                xme_core_resourceManager_addResponseSenderPort
                0x080270a4                xme_core_resourceManager_removePort
                0x08027118                xme_core_resourceManager_getPortType
                0x080271c4                xme_core_resourceManager_getPublicationPort
                0x0802722c                xme_core_resourceManager_getSubscriptionPort
                0x08027294                xme_core_resourceManager_getRequestSenderPort
                0x080272fc                xme_core_resourceManager_getRequestHandlerPort
 .text          0x08027394      0xb48 target\libxme_core_core.a(routingTable.c.obj)
                0x08027394                xme_core_resourceManager_getInterfaceCallback
                0x080273b0                xme_core_routingTable_init
                0x0802747c                xme_core_routingTable_fini
                0x080274ec                xme_core_routingTable_addLocalSourceRoute
                0x08027648                xme_core_routingTable_addLocalDestinationRoute
                0x080277b4                xme_core_routingTable_addOutboundRoute
                0x080278ec                xme_core_routingTable_addInboundRoute
                0x08027a24                xme_core_routingTable_addTranslationRoute
                0x08027b58                xme_core_routingTable_removeLocalSourceRoute
                0x08027bf4                xme_core_routingTable_removeLocalDestinationRoute
                0x08027cb4                xme_core_routingTable_removeOutboundRoute
                0x08027d70                xme_core_routingTable_removeInboundRoute
                0x08027e2c                xme_core_routingTable_removeTranslationRoute
 .text          0x08027edc      0xb18 target\libxme_core_core.a(rr.c.obj)
                0x08027edc                _xme_core_rr_publishRequestWithoutAnnouncement
                0x08028054                _xme_core_rr_unpublishRequestWithoutAnnouncement
                0x0802817c                _xme_core_rr_publishRequestHandlerWithoutAnnouncement
                0x080282fc                _xme_core_rr_unpublishRequestHandlerWithoutAnnouncement
                0x080283e0                xme_core_rr_init
                0x080283f0                xme_core_rr_fini
                0x080283fc                xme_core_rr_publishRequest
                0x08028518                xme_core_rr_unpublishRequest
                0x080285b0                xme_core_rr_publishRequestHandler
                0x080286c4                xme_core_rr_unpublishRequestHandler
                0x0802875c                xme_core_rr_sendRequest
                0x08028870                xme_core_rr_sendResponse
                0x080289d8                xme_core_rr_cancelRequest
 .text          0x080289f4      0x454 target\libxme_core_core.a(broker.c.obj)
                0x080289f4                xme_core_broker_init
                0x08028a0c                xme_core_broker_fini
                0x08028a18                xme_core_broker_deliverData
                0x08028a5c                xme_core_broker_deleiverDataToTransformation
                0x08028ae8                xme_core_broker_deliverDataToNetwork
                0x08028b68                xme_core_broker_deliverDataToComponent
                0x08028c4c                xme_core_broker_dccSendTopicData
                0x08028cf8                xme_core_broker_rrSendRequest
                0x08028da4                xme_core_broker_rrSendResponse
 .text          0x08028e48     0x1950 target\libxme_hal_net.a(net_arch.c.obj)
                0x08028e48                xme_hal_net_init
                0x08028e98                xme_hal_net_fini
                0x08028ec8                xme_hal_net_initInterface
                0x08028ee0                xme_hal_net_finiInterface
                0x08028ef4                xme_hal_net_createSocket
                0x08028ff4                xme_hal_net_destroySocket
                0x08029050                xme_hal_net_openSocket
                0x08029400                xme_hal_net_closeSocket
                0x080294c4                xme_hal_net_isSocketConnected
                0x08029558                xme_hal_net_setBlockingBehavior
                0x08029644                xme_hal_net_selectSocket
                0x08029830                xme_hal_net_selectMultipleSockets
                0x08029f04                xme_hal_net_waitForConnection
                0x0802a13c                xme_hal_net_readSocket
                0x0802a218                xme_hal_net_writeSocket
                0x0802a330                xme_hal_net_writeDatagram
                0x0802a3e0                xme_hal_net_writeDatagram_ipaddress
                0x0802a474                xme_hal_net_joinMulticastGroup
                0x0802a544                xme_hal_net_leaveMulticastGroup
                0x0802a614                xme_hal_net_getAddressOfLastReception
                0x0802a6cc                xme_hal_net_get_available_data_size
 .text          0x0802a798     0x1110 target\libxme_lwip_netif_arp.a(etharp.c.obj)
                0x0802a84c                etharp_tmr
                0x0802ad94                etharp_cleanup_netif
                0x0802ae04                etharp_find_addr
                0x0802b184                etharp_output
                0x0802b358                etharp_query
                0x0802b740                etharp_request
                0x0802b78c                ethernet_input
 .text          0x0802b8a8      0x35c target\libxme_lwip_core.a(netdb.c.obj)
                0x0802b8a8                lwip_gethostbyname
                0x0802b92c                lwip_gethostbyname_r
                0x0802ba50                lwip_freeaddrinfo
                0x0802ba7c                lwip_getaddrinfo
 .text          0x0802bc04      0xabc target\libxme_stm32f0xspl_rcc.a(stm32f10x_rcc.c.obj)
                0x0802bc04                RCC_DeInit
                0x0802bc74                RCC_HSEConfig
                0x0802bcd0                RCC_WaitForHSEStartUp
                0x0802bd34                RCC_AdjustHSICalibrationValue
                0x0802bd74                RCC_HSICmd
                0x0802bd94                RCC_PLLConfig
                0x0802bdd8                RCC_PLLCmd
                0x0802bdf8                RCC_PREDIV1Config
                0x0802be40                RCC_PREDIV2Config
                0x0802be7c                RCC_PLL2Config
                0x0802beb8                RCC_PLL2Cmd
                0x0802bed8                RCC_PLL3Config
                0x0802bf14                RCC_PLL3Cmd
                0x0802bf34                RCC_SYSCLKConfig
                0x0802bf70                RCC_GetSYSCLKSource
                0x0802bf8c                RCC_HCLKConfig
                0x0802bfc8                RCC_PCLK1Config
                0x0802c004                RCC_PCLK2Config
                0x0802c044                RCC_ITConfig
                0x0802c094                RCC_OTGFSCLKConfig
                0x0802c0b0                RCC_ADCCLKConfig
                0x0802c0ec                RCC_I2S2CLKConfig
                0x0802c108                RCC_I2S3CLKConfig
                0x0802c124                RCC_LSEConfig
                0x0802c16c                RCC_LSICmd
                0x0802c18c                RCC_RTCCLKConfig
                0x0802c1b0                RCC_RTCCLKCmd
                0x0802c1d0                RCC_GetClocksFreq
                0x0802c3c8                RCC_AHBPeriphClockCmd
                0x0802c40c                RCC_APB2PeriphClockCmd
                0x0802c450                RCC_APB1PeriphClockCmd
                0x0802c494                RCC_AHBPeriphResetCmd
                0x0802c4d8                RCC_APB2PeriphResetCmd
                0x0802c51c                RCC_APB1PeriphResetCmd
                0x0802c560                RCC_BackupResetCmd
                0x0802c580                RCC_ClockSecuritySystemCmd
                0x0802c5a0                RCC_MCOConfig
                0x0802c5c0                RCC_GetFlagStatus
                0x0802c644                RCC_ClearFlag
                0x0802c660                RCC_GetITStatus
                0x0802c6a0                RCC_ClearITPendingBit
 .text          0x0802c6c0      0x1a4 target\libxme_stm32f0xspl_misc.a(misc.c.obj)
                0x0802c6c0                NVIC_PriorityGroupConfig
                0x0802c6e4                NVIC_Init
                0x0802c7bc                NVIC_SetVectorTable
                0x0802c7e8                NVIC_SystemLPConfig
                0x0802c82c                SysTick_CLKSourceConfig
 .text          0x0802c864      0x254 target\libxme_stm32f0xspl_misc.a(stm32f10x_exti.c.obj)
                0x0802c864                EXTI_DeInit
                0x0802c89c                EXTI_Init
                0x0802c998                EXTI_StructInit
                0x0802c9cc                EXTI_GenerateSWInterrupt
                0x0802c9f0                EXTI_GetFlagStatus
                0x0802ca2c                EXTI_ClearFlag
                0x0802ca48                EXTI_GetITStatus
                0x0802ca9c                EXTI_ClearITPendingBit
 .text          0x0802cab8      0x6cc target\libxme_stm32f0xspl_gpio.a(stm32f10x_gpio.c.obj)
                0x0802cab8                GPIO_DeInit
                0x0802cbd0                GPIO_AFIODeInit
                0x0802cbf0                GPIO_Init
                0x0802cdb0                GPIO_StructInit
                0x0802cddc                GPIO_ReadInputDataBit
                0x0802ce18                GPIO_ReadInputData
                0x0802ce34                GPIO_ReadOutputDataBit
                0x0802ce70                GPIO_ReadOutputData
                0x0802ce8c                GPIO_SetBits
                0x0802cea8                GPIO_ResetBits
                0x0802cec4                GPIO_WriteBit
                0x0802cef4                GPIO_Write
                0x0802cf10                GPIO_PinLockConfig
                0x0802cf54                GPIO_EventOutputConfig
                0x0802cfa8                GPIO_EventOutputCmd
                0x0802cfc8                GPIO_PinRemapConfig
                0x0802d0cc                GPIO_EXTILineConfig
                0x0802d168                GPIO_ETH_MediaInterfaceConfig
 .text          0x0802d184        0xc target\libxme_hal_energy.a(energy_arch.c.obj)
                0x0802d184                xme_hal_energy_sleep
 .text          0x0802d190      0x544 target\libxme_hal_sched.a(sched_arch.c.obj)
                0x0802d190                xme_hal_sched_init
                0x0802d1e0                xme_hal_sched_taskWrapper
                0x0802d2b8                xme_hal_sched_addTask
                0x0802d430                xme_hal_sched_setTaskExecutionState
                0x0802d540                xme_hal_sched_removeTask
                0x0802d62c                xme_hal_sched_fini
 .text          0x0802d6d4      0x4a4 target\libxme_hal_sync.a(sync_arch.c.obj)
                0x0802d6d4                xme_hal_sync_init
                0x0802d74c                xme_hal_sync_fini
                0x0802d7a4                xme_hal_sync_createCriticalSection
                0x0802d8c0                xme_hal_sync_destroyCriticalSection
                0x0802d98c                xme_hal_sync_enterCriticalSection
                0x0802da30                xme_hal_sync_tryEnterCriticalSection
                0x0802dadc                xme_hal_sync_leaveCriticalSection
 .text          0x0802db78      0x134 target\libxme_hal_table.a(table_arch.c.obj)
                0x0802db78                xme_hal_table_addItem
                0x0802dc38                xme_hal_table_removeItem
 .text          0x0802dcac       0x98 target\libxme_hal_tls.a(tls_arch.c.obj)
                0x0802dcac                xme_hal_tls_init
                0x0802dcbc                xme_hal_tls_fini
                0x0802dcc8                xme_hal_tls_alloc
                0x0802dce8                xme_hal_tls_get
                0x0802dd08                xme_hal_tls_free
                0x0802dd28                xme_hal_tls_registerThread
                0x0802dd38                xme_hal_tls_deregisterThread
 .text          0x0802dd44       0x68 target\libxme_hal_random.a(random_arch.c.obj)
                0x0802dd44                xme_hal_random_init
                0x0802dd54                xme_hal_random_fini
                0x0802dd60                xme_hal_random_registerThread
                0x0802dd70                xme_hal_random_deregisterThread
                0x0802dd7c                xme_hal_random_rand
                0x0802dd8c                xme_hal_random_randRange
 .text          0x0802ddac      0x2d4 target\libxme_hal_sharedPtr.a(sharedPtr_arch.c.obj)
                0x0802ddac                xme_hal_sharedPtr_init
                0x0802ddbc                xme_hal_sharedPtr_fini
                0x0802ddc8                xme_hal_sharedPtr_create
                0x0802de54                xme_hal_sharedPtr_realloc
                0x0802debc                xme_hal_sharedPtr_retain
                0x0802df20                xme_hal_sharedPtr_destroy
                0x0802df9c                xme_hal_sharedPtr_createFromPointer
                0x0802dfe8                xme_hal_sharedPtr_getSize
                0x0802e014                xme_hal_sharedPtr_getReferenceCount
                0x0802e058                xme_hal_sharedPtr_getPointer
 .text          0x0802e080       0xd4 target\libxme_hal_mem.a(mem_arch.c.obj)
                0x0802e080                xme_hal_mem_alloc
                0x0802e0a0                xme_hal_mem_realloc
                0x0802e0b0                xme_hal_mem_free
                0x0802e0c8                xme_hal_mem_set
                0x0802e108                xme_hal_mem_copy
 .text          0x0802e154      0x21c c:/belleii/devenv/toolchain/arm-gcc/bin/../lib/gcc/arm-none-eabi/4.5.2/thumb2\libgcc.a(_arm_addsubsf3.o)
                0x0802e154                __aeabi_frsub
                0x0802e15c                __subsf3
                0x0802e15c                __aeabi_fsub
                0x0802e160                __aeabi_fadd
                0x0802e160                __addsf3
                0x0802e2c0                __aeabi_ui2f
                0x0802e2c0                __floatunsisf
                0x0802e2c8                __aeabi_i2f
                0x0802e2c8                __floatsisf
                0x0802e2e4                __aeabi_ul2f
                0x0802e2e4                __floatundisf
                0x0802e2f4                __aeabi_l2f
                0x0802e2f4                __floatdisf
 .text          0x0802e370      0x2a0 c:/belleii/devenv/toolchain/arm-gcc/bin/../lib/gcc/arm-none-eabi/4.5.2/thumb2\libgcc.a(_arm_muldivsf3.o)
                0x0802e370                __mulsf3
                0x0802e370                __aeabi_fmul
                0x0802e4d8                __aeabi_fdiv
                0x0802e4d8                __divsf3
 .text          0x0802e610       0x4c c:/belleii/devenv/toolchain/arm-gcc/bin/../lib/gcc/arm-none-eabi/4.5.2/thumb2\libgcc.a(_arm_fixsfsi.o)
                0x0802e610                __aeabi_f2iz
                0x0802e610                __fixsfsi
 .text          0x0802e65c       0x38 c:/belleii/devenv/toolchain/arm-gcc/bin/../lib/gcc/arm-none-eabi/4.5.2/thumb2\libgcc.a(_aeabi_ldivmod.o)
                0x0802e65c                __aeabi_ldivmod
 .text          0x0802e694       0x2c c:/belleii/devenv/toolchain/arm-gcc/bin/../lib/gcc/arm-none-eabi/4.5.2/thumb2\libgcc.a(_aeabi_uldivmod.o)
                0x0802e694                __aeabi_uldivmod
 .text          0x0802e6c0       0x60 c:/belleii/devenv/toolchain/arm-gcc/bin/../lib/gcc/arm-none-eabi/4.5.2/thumb2\libgcc.a(bpabi.o)
                0x0802e6c0                __gnu_ldivmod_helper
                0x0802e6f0                __gnu_uldivmod_helper
 .text          0x0802e720        0x4 c:/belleii/devenv/toolchain/arm-gcc/bin/../lib/gcc/arm-none-eabi/4.5.2/thumb2\libgcc.a(_dvmd_tls.o)
                0x0802e720                __aeabi_idiv0
                0x0802e720                __aeabi_ldiv0
 .text          0x0802e724      0x360 c:/belleii/devenv/toolchain/arm-gcc/bin/../lib/gcc/arm-none-eabi/4.5.2/thumb2\libgcc.a(_divdi3.o)
                0x0802e724                __divdi3
 .text          0x0802ea84      0x308 c:/belleii/devenv/toolchain/arm-gcc/bin/../lib/gcc/arm-none-eabi/4.5.2/thumb2\libgcc.a(_udivdi3.o)
                0x0802ea84                __udivdi3
 *fill*         0x0802ed8c        0x4 00
 .text          0x0802ed90      0x278 c:/belleii/devenv/toolchain/arm-gcc/bin/../lib/gcc/arm-none-eabi/4.5.2/thumb2\libgcc.a(_udivsi3.o)
                0x0802ed90                __aeabi_uidiv
                0x0802ed90                __udivsi3
                0x0802efec                __aeabi_uidivmod
 .text          0x0802f008       0x10 c:/belleii/devenv/toolchain/arm-gcc/bin/../lib/gcc/arm-none-eabi/4.5.2/../../../../arm-none-eabi/lib/thumb2\libc.a(lib_a-atoi.o)
                0x0802f008                atoi
                0x0802f010                _atoi_r
 .text          0x0802f018       0x64 c:/belleii/devenv/toolchain/arm-gcc/bin/../lib/gcc/arm-none-eabi/4.5.2/../../../../arm-none-eabi/lib/thumb2\libc.a(lib_a-memcmp.o)
                0x0802f018                memcmp
 .text          0x0802f07c      0x150 c:/belleii/devenv/toolchain/arm-gcc/bin/../lib/gcc/arm-none-eabi/4.5.2/../../../../arm-none-eabi/lib/thumb2\libc.a(lib_a-memcpy.o)
                0x0802f07c                memcpy
 .text          0x0802f1cc       0xb4 c:/belleii/devenv/toolchain/arm-gcc/bin/../lib/gcc/arm-none-eabi/4.5.2/../../../../arm-none-eabi/lib/thumb2\libc.a(lib_a-memset.o)
                0x0802f1cc                memset
 .text          0x0802f280      0x1dc c:/belleii/devenv/toolchain/arm-gcc/bin/../lib/gcc/arm-none-eabi/4.5.2/../../../../arm-none-eabi/lib/thumb2\libc.a(lib_a-strcmp.o)
                0x0802f280                strcmp
 .text          0x0802f45c       0x60 c:/belleii/devenv/toolchain/arm-gcc/bin/../lib/gcc/arm-none-eabi/4.5.2/../../../../arm-none-eabi/lib/thumb2\libc.a(lib_a-strlen.o)
                0x0802f45c                strlen
 .text          0x0802f4bc       0x78 c:/belleii/devenv/toolchain/arm-gcc/bin/../lib/gcc/arm-none-eabi/4.5.2/../../../../arm-none-eabi/lib/thumb2\libc.a(lib_a-strncpy.o)
                0x0802f4bc                strncpy
 .text          0x0802f534      0x17c c:/belleii/devenv/toolchain/arm-gcc/bin/../lib/gcc/arm-none-eabi/4.5.2/../../../../arm-none-eabi/lib/thumb2\libc.a(lib_a-strtol.o)
                0x0802f534                _strtol_r
                0x0802f698                strtol
 .text          0x0802f6b0        0x0 c:/belleii/devenv/toolchain/arm-gcc/bin/../lib/gcc/arm-none-eabi/4.5.2/../../../../arm-none-eabi/lib/thumb2\libc.a(lib_a-ctype_.o)
 .text          0x0802f6b0        0x0 c:/belleii/devenv/toolchain/arm-gcc/bin/../lib/gcc/arm-none-eabi/4.5.2/../../../../arm-none-eabi/lib/thumb2\libc.a(lib_a-impure.o)
 *(.text.*)
 .text.Reset_Handler
                0x0802f6b0       0x44 target\libxme_target_startup.a(startup_stm32f10x_cl.S.obj)
                0x0802f6b0                Reset_Handler
 .text.Default_Handler
                0x0802f6f4        0x2 target\libxme_target_startup.a(startup_stm32f10x_cl.S.obj)
                0x0802f6f4                TIM1_CC_IRQHandler
                0x0802f6f4                TIM6_IRQHandler
                0x0802f6f4                PVD_IRQHandler
                0x0802f6f4                CAN2_RX1_IRQHandler
                0x0802f6f4                EXTI3_IRQHandler
                0x0802f6f4                I2C2_EV_IRQHandler
                0x0802f6f4                CAN1_RX0_IRQHandler
                0x0802f6f4                CAN2_SCE_IRQHandler
                0x0802f6f4                ADC1_2_IRQHandler
                0x0802f6f4                SPI1_IRQHandler
                0x0802f6f4                TAMPER_IRQHandler
                0x0802f6f4                CAN2_RX0_IRQHandler
                0x0802f6f4                DMA2_Channel2_IRQHandler
                0x0802f6f4                DMA1_Channel4_IRQHandler
                0x0802f6f4                USART3_IRQHandler
                0x0802f6f4                RTC_IRQHandler
                0x0802f6f4                DMA1_Channel7_IRQHandler
                0x0802f6f4                CAN1_RX1_IRQHandler
                0x0802f6f4                UART5_IRQHandler
                0x0802f6f4                TIM4_IRQHandler
                0x0802f6f4                DMA2_Channel1_IRQHandler
                0x0802f6f4                I2C1_EV_IRQHandler
                0x0802f6f4                DMA1_Channel6_IRQHandler
                0x0802f6f4                UART4_IRQHandler
                0x0802f6f4                DMA2_Channel4_IRQHandler
                0x0802f6f4                TIM3_IRQHandler
                0x0802f6f4                RCC_IRQHandler
                0x0802f6f4                TIM1_TRG_COM_IRQHandler
                0x0802f6f4                DMA1_Channel1_IRQHandler
                0x0802f6f4                Default_Handler
                0x0802f6f4                TIM7_IRQHandler
                0x0802f6f4                CAN2_TX_IRQHandler
                0x0802f6f4                TIM5_IRQHandler
                0x0802f6f4                EXTI9_5_IRQHandler
                0x0802f6f4                ETH_WKUP_IRQHandler
                0x0802f6f4                SPI2_IRQHandler
                0x0802f6f4                CAN1_TX_IRQHandler
                0x0802f6f4                DMA2_Channel5_IRQHandler
                0x0802f6f4                DMA1_Channel5_IRQHandler
                0x0802f6f4                EXTI4_IRQHandler
                0x0802f6f4                DMA1_Channel3_IRQHandler
                0x0802f6f4                TIM1_UP_IRQHandler
                0x0802f6f4                WWDG_IRQHandler
                0x0802f6f4                TIM2_IRQHandler
                0x0802f6f4                OTG_FS_WKUP_IRQHandler
                0x0802f6f4                TIM1_BRK_IRQHandler
                0x0802f6f4                EXTI1_IRQHandler
                0x0802f6f4                RTCAlarm_IRQHandler
                0x0802f6f4                USART2_IRQHandler
                0x0802f6f4                I2C2_ER_IRQHandler
                0x0802f6f4                DMA1_Channel2_IRQHandler
                0x0802f6f4                CAN1_SCE_IRQHandler
                0x0802f6f4                FLASH_IRQHandler
                0x0802f6f4                USART1_IRQHandler
                0x0802f6f4                OTG_FS_IRQHandler
                0x0802f6f4                SPI3_IRQHandler
                0x0802f6f4                I2C1_ER_IRQHandler
                0x0802f6f4                DMA2_Channel3_IRQHandler
 *(.rodata)
 *fill*         0x0802f6f6        0x2 00
 .rodata        0x0802f6f8       0x10 CMakeFiles/firmware.dir/udpecho.c.obj
 .rodata        0x0802f708       0x20 CMakeFiles/firmware.dir/belle_II_PS_node_XME_Component.c.obj
 .rodata        0x0802f728        0xc CMakeFiles/firmware.dir/application_logic.c.obj
 .rodata        0x0802f734       0x18 CMakeFiles/firmware.dir/startup.c.obj
 .rodata        0x0802f74c       0x10 CMakeFiles/firmware.dir/alive_strobe.c.obj
 .rodata        0x0802f75c       0xd0 CMakeFiles/firmware.dir/belle_network_connection_Component.c.obj
 .rodata        0x0802f82c       0x98 CMakeFiles/firmware.dir/main.c.obj
 .rodata        0x0802f8c4        0x4 target\libxme_target_startup.a(port.c.obj)
                0x0802f8c4                ulKernelPriority
 .rodata        0x0802f8c8       0xcc target\libxme_lwip_core.a(tcp.c.obj)
                0x0802f940                tcp_state_str
                0x0802f96c                tcp_backoff
                0x0802f97c                tcp_persist_backoff
                0x0802f984                tcp_pcb_lists
 .rodata        0x0802f994       0x40 target\libxme_lwip_core.a(sockets.c.obj)
 .rodata        0x0802f9d4       0x10 target\libxme_lwip_core.a(tcpip.c.obj)
 .rodata        0x0802f9e4       0x10 target\libxme_lwip_core.a(dns.c.obj)
 .rodata        0x0802f9f4       0x40 target\libxme_lwip_core.a(memp.c.obj)
 .rodata        0x0802fa34        0x8 target\libxme_lwip_core_ipv4.a(ip_addr.c.obj)
                0x0802fa34                ip_addr_any
                0x0802fa38                ip_addr_broadcast
 .rodata        0x0802fa3c        0x8 target\libxme_lwip_netif_ethernet.a(lwiplib.c.obj)
 .rodata        0x0802fa44        0x8 target\libxme_freertos_kernel.a(tasks.c.obj)
 .rodata        0x0802fa4c        0x2 target\libxme_freertos_memmang.a(heap_2.c.obj)
 *fill*         0x0802fa4e        0x2 00
 .rodata        0x0802fa50      0x4d0 target\libxme_core_core.a(directory.c.obj)
 .rodata        0x0802ff20       0x90 target\libxme_core_core.a(interfaceManager.c.obj)
 .rodata        0x0802ffb0       0x50 target\libxme_core_core.a(nodeManager.c.obj)
 .rodata        0x08030000       0x30 target\libxme_core_core.a(net_plugin.c.obj)
 .rodata        0x08030030       0xb4 target\libxme_core_core.a(resourceManager.c.obj)
 .rodata        0x080300e4       0x54 target\libxme_hal_net.a(net_arch.c.obj)
 .rodata        0x08030138       0x10 target\libxme_lwip_netif_arp.a(etharp.c.obj)
                0x08030138                ethbroadcast
                0x08030140                ethzero
 .rodata        0x08030148        0x8 target\libxme_hal_sched.a(sched_arch.c.obj)
 .rodata        0x08030150      0x104 c:/belleii/devenv/toolchain/arm-gcc/bin/../lib/gcc/arm-none-eabi/4.5.2/../../../../arm-none-eabi/lib/thumb2\libc.a(lib_a-ctype_.o)
                0x08030150                _ctype_
 .rodata        0x08030254        0x4 c:/belleii/devenv/toolchain/arm-gcc/bin/../lib/gcc/arm-none-eabi/4.5.2/../../../../arm-none-eabi/lib/thumb2\libc.a(lib_a-impure.o)
                0x08030254                _global_impure_ptr
 *(.rodata*)
 .rodata.str1.4
                0x08030258        0x4 c:/belleii/devenv/toolchain/arm-gcc/bin/../lib/gcc/arm-none-eabi/4.5.2/../../../../arm-none-eabi/lib/thumb2\libc.a(lib_a-impure.o)
 *(.glue_7)
 .glue_7        0x00000000        0x0 linker stubs
 *(.glue_7t)
 .glue_7t       0x00000000        0x0 linker stubs
                0x0803025c                . = ALIGN (0x4)
                0x0803025c                _etext = .
                0x0803025c                _sidata = _etext

.vfp11_veneer   0x0803025c        0x0
 .vfp11_veneer  0x00000000        0x0 linker stubs

.v4_bx          0x0803025c        0x0
 .v4_bx         0x00000000        0x0 linker stubs

.data           0x20000000      0xf64 load address 0x0803025c
                0x20000000                . = ALIGN (0x4)
                0x20000000                _sdata = .
 *(.data)
 .data          0x20000000        0x0 CMakeFiles/firmware.dir/stm32f10x_it.c.obj
 .data          0x20000000        0x0 CMakeFiles/firmware.dir/lwip_test.c.obj
 .data          0x20000000        0x0 CMakeFiles/firmware.dir/udpecho.c.obj
 .data          0x20000000        0x0 CMakeFiles/firmware.dir/dac_spi_cs_mux.c.obj
 .data          0x20000000        0x0 CMakeFiles/firmware.dir/adc_spi_cs_mux.c.obj
 .data          0x20000000        0x0 CMakeFiles/firmware.dir/belle_II_PS_node_XME_Component.c.obj
 .data          0x20000000      0x6a4 CMakeFiles/firmware.dir/help_functions_for_calibration.c.obj
                0x20000000                channel_information
 .data          0x200006a4        0x0 CMakeFiles/firmware.dir/application_logic.c.obj
 .data          0x200006a4        0x0 CMakeFiles/firmware.dir/self_tests.c.obj
 .data          0x200006a4      0x144 CMakeFiles/firmware.dir/regulator_status_enable_pins.c.obj
                0x200006a4                regulator_analog_enable
                0x200006b0                regulator_digital_enable
                0x200006bc                regulator_board_1_status
                0x200006c8                regulator_board_2_status
                0x200006d4                regulator_board_3_status
                0x200006e0                regulator_board_4_status
                0x200006ec                regulator_board_5_status
                0x200006f8                regulator_board_6_status
                0x20000704                ups_status_pin
                0x20000710                thermal_status_pin
                0x2000071c                ovp_fast_status_pin
                0x20000728                LED_enable_pin
                0x20000734                Power_Switch_pin
                0x20000740                Latch_Reset_pin
                0x2000074c                DCDC_POK_pin
                0x20000758                Green_LED_pin
                0x20000764                Write_Enable_pin
                0x20000770                ADAC_SWITCH_pin
                0x2000077c                DDAC_SWITCH_pin
                0x20000788                ovp_mux_pin_5
                0x20000794                ovp_mux_pin_4
                0x200007a0                ovp_mux_pin_3
                0x200007ac                ovp_mux_pin_2
                0x200007b8                ovp_mux_pin_1
                0x200007c4                ovp_mux_pin_0
                0x200007d0                ovp_enab_pin
                0x200007dc                ovp_disab_pin
 .data          0x200007e8        0x0 CMakeFiles/firmware.dir/initialization_functions.c.obj
 .data          0x200007e8        0x0 CMakeFiles/firmware.dir/startup.c.obj
 .data          0x200007e8        0x0 CMakeFiles/firmware.dir/recalibrate_logic.c.obj
 .data          0x200007e8        0x0 CMakeFiles/firmware.dir/shutdown.c.obj
 .data          0x200007e8        0xc CMakeFiles/firmware.dir/alive_strobe.c.obj
                0x200007e8                alive_strobe_pin
 .data          0x200007f4        0x0 CMakeFiles/firmware.dir/belle_network_connection_Component.c.obj
 *fill*         0x200007f4        0x4 00
 .data          0x200007f8      0x388 CMakeFiles/firmware.dir/main.c.obj
                0x20000af0                xme_core_resourceManager_componentDescriptors
                0x20000b7c                xme_core_resourceManager_componentCount
 .data          0x20000b80        0x0 target\libxme_target_startup.a(startup_stm32f10x_cl.S.obj)
 .data          0x20000b80        0x4 target\libxme_target_startup.a(port.c.obj)
 .data          0x20000b84        0x0 target\libxme_lwip_core.a(def.c.obj)
 .data          0x20000b84        0x0 target\libxme_lwip_core.a(pbuf.c.obj)
 .data          0x20000b84        0x8 target\libxme_lwip_core.a(tcp.c.obj)
 .data          0x20000b8c        0x0 target\libxme_lwip_core.a(tcp_out.c.obj)
 .data          0x20000b8c        0x0 target\libxme_lwip_core.a(timers.c.obj)
 .data          0x20000b8c        0x2 target\libxme_lwip_core.a(udp.c.obj)
 .data          0x20000b8e        0x0 target\libxme_lwip_core.a(sockets.c.obj)
 .data          0x20000b8e        0x0 target\libxme_lwip_core.a(tcpip.c.obj)
 *fill*         0x20000b8e        0x2 00
 .data          0x20000b90        0x4 target\libxme_lwip_core.a(dhcp.c.obj)
 .data          0x20000b94        0x0 target\libxme_lwip_core.a(dns.c.obj)
 .data          0x20000b94        0x0 target\libxme_lwip_core.a(init.c.obj)
 .data          0x20000b94        0x0 target\libxme_lwip_core.a(mem.c.obj)
 .data          0x20000b94        0x0 target\libxme_lwip_core.a(memp.c.obj)
 .data          0x20000b94        0x0 target\libxme_lwip_core.a(netif.c.obj)
 .data          0x20000b94        0x0 target\libxme_lwip_core.a(tcp_in.c.obj)
 .data          0x20000b94        0x0 target\libxme_lwip_core.a(api_lib.c.obj)
 .data          0x20000b94        0x0 target\libxme_lwip_core.a(api_msg.c.obj)
 .data          0x20000b94        0x0 target\libxme_lwip_core.a(netbuf.c.obj)
 .data          0x20000b94        0x0 target\libxme_lwip_core.a(raw.c.obj)
 .data          0x20000b94        0x0 target\libxme_lwip_core_ipv4.a(icmp.c.obj)
 .data          0x20000b94        0x0 target\libxme_lwip_core_ipv4.a(igmp.c.obj)
 .data          0x20000b94        0x0 target\libxme_lwip_core_ipv4.a(inet_chksum.c.obj)
 .data          0x20000b94        0x0 target\libxme_lwip_core_ipv4.a(ip.c.obj)
 .data          0x20000b94        0x0 target\libxme_lwip_core_ipv4.a(ip_addr.c.obj)
 .data          0x20000b94        0x0 target\libxme_lwip_core_ipv4.a(ip_frag.c.obj)
 .data          0x20000b94        0x0 target\libxme_lwip_netif_ethernet.a(enet.c.obj)
 .data          0x20000b94        0x0 target\libxme_lwip_netif_ethernet.a(lwiplib.c.obj)
 .data          0x20000b94        0x4 target\libxme_lwip_netif_ethernet.a(ethernetif.c.obj)
                0x20000b94                DMATxDesc
 .data          0x20000b98        0x4 target\libxme_lwip_netif_ethernet.a(sys_arch.c.obj)
 .data          0x20000b9c        0x0 target\libxme_lwip_netif_ethernet.a(stm32_eth.c.obj)
 .data          0x20000b9c        0x0 target\libxme_freertos_kernel.a(queue.c.obj)
 .data          0x20000b9c        0x4 target\libxme_freertos_kernel.a(tasks.c.obj)
 .data          0x20000ba0        0x0 target\libxme_freertos_kernel.a(list.c.obj)
 .data          0x20000ba0        0x4 target\libxme_freertos_memmang.a(heap_2.c.obj)
 .data          0x20000ba4        0x0 target\libxme_target_bsp.a(enet_arch.c.obj)
 .data          0x20000ba4       0x14 target\libxme_target_bsp.a(system_stm32f10x.c.obj)
                0x20000ba4                SystemCoreClock
                0x20000ba8                AHBPrescTable
 .data          0x20000bb8        0x0 target\libxme_hal_dio.a(dio_arch.c.obj)
 .data          0x20000bb8        0x0 target\libbelle_drivers.a(mux.c.obj)
 .data          0x20000bb8      0x104 target\libbelle_drivers.a(mux_inst.c.obj)
                0x20000bb8                mux_adc
                0x20000bec                dac_mux
                0x20000c20                board_selection_dac
                0x20000c54                board_selection_adc
                0x20000c88                channel_selection_adc
 .data          0x20000cbc        0x0 target\libbelle_drivers.a(gpio_config.c.obj)
 .data          0x20000cbc        0x0 target\libbelle_drivers.a(spi.c.obj)
 .data          0x20000cbc       0x68 target\libbelle_drivers.a(spi_inst.c.obj)
                0x20000cbc                dac_spi
                0x20000cf0                adc_spi
 .data          0x20000d24        0x0 target\libbelle_drivers.a(adc_ad7322.c.obj)
 .data          0x20000d24        0x8 target\libbelle_drivers.a(adc_ad7322_inst.c.obj)
                0x20000d24                bare_adc
                0x20000d28                board_adc
 .data          0x20000d2c        0x0 target\libbelle_drivers.a(dac_ad5392.c.obj)
 .data          0x20000d2c       0x50 target\libbelle_drivers.a(dac_ad5392_inst.c.obj)
                0x20000d2c                board_dac_digital
                0x20000d54                board_dac_analog
 .data          0x20000d7c        0x0 target\libbelle_drivers.a(adc_intern_stm32f107.c.obj)
 .data          0x20000d7c        0x0 target\libbelle_drivers.a(adc_intern_stm32f107_inst.c.obj)
 .data          0x20000d7c        0x0 target\libbelle_drivers.a(i2c.c.obj)
 .data          0x20000d7c       0x24 target\libbelle_drivers.a(i2c_inst.c.obj)
                0x20000d7c                i2c_eeprom
 .data          0x20000da0        0x0 target\libbelle_drivers.a(eeprom.c.obj)
 .data          0x20000da0       0x30 target\libbelle_drivers.a(eeprom_inst.c.obj)
                0x20000da0                eeprom_Timeout
                0x20000da4                belle_eeprom
                0x20000da8                calibration_page_values
 .data          0x20000dd0        0x0 target\libxme_stm32f0xspl_spi.a(stm32f10x_spi.c.obj)
 .data          0x20000dd0        0x0 target\libxme_stm32f0xspl_i2c.a(stm32f10x_i2c.c.obj)
 .data          0x20000dd0        0x0 target\libxme_stm32f0xspl_adc.a(stm32f10x_adc.c.obj)
 .data          0x20000dd0        0x0 target\libxme_core_core.a(core.c.obj)
 .data          0x20000dd0        0x0 target\libxme_core_core.a(dcc.c.obj)
 .data          0x20000dd0        0x0 target\libxme_core_core.a(directory.c.obj)
 .data          0x20000dd0        0x0 target\libxme_core_core.a(interfaceManager.c.obj)
 .data          0x20000dd0        0x0 target\libxme_core_core.a(md.c.obj)
 .data          0x20000dd0        0x0 target\libxme_core_core.a(nodeManager.c.obj)
 .data          0x20000dd0       0x44 target\libxme_core_core.a(net_plugin.c.obj)
 .data          0x20000e14       0x44 target\libxme_core_core.a(net_plugin_tcp.c.obj)
 .data          0x20000e58        0x0 target\libxme_core_core.a(packet.c.obj)
 .data          0x20000e58        0x0 target\libxme_core_core.a(resourceManager.c.obj)
 .data          0x20000e58        0x0 target\libxme_core_core.a(routingTable.c.obj)
 .data          0x20000e58        0x0 target\libxme_core_core.a(rr.c.obj)
 .data          0x20000e58        0x0 target\libxme_core_core.a(broker.c.obj)
 .data          0x20000e58        0x0 target\libxme_hal_net.a(net_arch.c.obj)
 .data          0x20000e58        0x0 target\libxme_lwip_netif_arp.a(etharp.c.obj)
 .data          0x20000e58        0x0 target\libxme_lwip_core.a(netdb.c.obj)
 .data          0x20000e58       0x14 target\libxme_stm32f0xspl_rcc.a(stm32f10x_rcc.c.obj)
 .data          0x20000e6c        0x0 target\libxme_stm32f0xspl_misc.a(misc.c.obj)
 .data          0x20000e6c        0x0 target\libxme_stm32f0xspl_misc.a(stm32f10x_exti.c.obj)
 .data          0x20000e6c        0x0 target\libxme_stm32f0xspl_gpio.a(stm32f10x_gpio.c.obj)
 .data          0x20000e6c        0x0 target\libxme_hal_energy.a(energy_arch.c.obj)
 .data          0x20000e6c        0x0 target\libxme_hal_sched.a(sched_arch.c.obj)
 .data          0x20000e6c        0x0 target\libxme_hal_sync.a(sync_arch.c.obj)
 .data          0x20000e6c        0x0 target\libxme_hal_table.a(table_arch.c.obj)
 .data          0x20000e6c        0x0 target\libxme_hal_tls.a(tls_arch.c.obj)
 .data          0x20000e6c        0x0 target\libxme_hal_random.a(random_arch.c.obj)
 .data          0x20000e6c        0x0 target\libxme_hal_sharedPtr.a(sharedPtr_arch.c.obj)
 .data          0x20000e6c        0x0 target\libxme_hal_mem.a(mem_arch.c.obj)
 .data          0x20000e6c        0x0 c:/belleii/devenv/toolchain/arm-gcc/bin/../lib/gcc/arm-none-eabi/4.5.2/thumb2\libgcc.a(_arm_addsubsf3.o)
 .data          0x20000e6c        0x0 c:/belleii/devenv/toolchain/arm-gcc/bin/../lib/gcc/arm-none-eabi/4.5.2/thumb2\libgcc.a(_arm_muldivsf3.o)
 .data          0x20000e6c        0x0 c:/belleii/devenv/toolchain/arm-gcc/bin/../lib/gcc/arm-none-eabi/4.5.2/thumb2\libgcc.a(_arm_fixsfsi.o)
 .data          0x20000e6c        0x0 c:/belleii/devenv/toolchain/arm-gcc/bin/../lib/gcc/arm-none-eabi/4.5.2/thumb2\libgcc.a(_aeabi_ldivmod.o)
 .data          0x20000e6c        0x0 c:/belleii/devenv/toolchain/arm-gcc/bin/../lib/gcc/arm-none-eabi/4.5.2/thumb2\libgcc.a(_aeabi_uldivmod.o)
 .data          0x20000e6c        0x0 c:/belleii/devenv/toolchain/arm-gcc/bin/../lib/gcc/arm-none-eabi/4.5.2/thumb2\libgcc.a(bpabi.o)
 .data          0x20000e6c        0x0 c:/belleii/devenv/toolchain/arm-gcc/bin/../lib/gcc/arm-none-eabi/4.5.2/thumb2\libgcc.a(_dvmd_tls.o)
 .data          0x20000e6c        0x0 c:/belleii/devenv/toolchain/arm-gcc/bin/../lib/gcc/arm-none-eabi/4.5.2/thumb2\libgcc.a(_divdi3.o)
 .data          0x20000e6c        0x0 c:/belleii/devenv/toolchain/arm-gcc/bin/../lib/gcc/arm-none-eabi/4.5.2/thumb2\libgcc.a(_udivdi3.o)
 .data          0x20000e6c        0x0 c:/belleii/devenv/toolchain/arm-gcc/bin/../lib/gcc/arm-none-eabi/4.5.2/thumb2\libgcc.a(_udivsi3.o)
 .data          0x20000e6c        0x0 c:/belleii/devenv/toolchain/arm-gcc/bin/../lib/gcc/arm-none-eabi/4.5.2/../../../../arm-none-eabi/lib/thumb2\libc.a(lib_a-atoi.o)
 .data          0x20000e6c        0x0 c:/belleii/devenv/toolchain/arm-gcc/bin/../lib/gcc/arm-none-eabi/4.5.2/../../../../arm-none-eabi/lib/thumb2\libc.a(lib_a-memcmp.o)
 .data          0x20000e6c        0x0 c:/belleii/devenv/toolchain/arm-gcc/bin/../lib/gcc/arm-none-eabi/4.5.2/../../../../arm-none-eabi/lib/thumb2\libc.a(lib_a-memcpy.o)
 .data          0x20000e6c        0x0 c:/belleii/devenv/toolchain/arm-gcc/bin/../lib/gcc/arm-none-eabi/4.5.2/../../../../arm-none-eabi/lib/thumb2\libc.a(lib_a-memset.o)
 .data          0x20000e6c        0x0 c:/belleii/devenv/toolchain/arm-gcc/bin/../lib/gcc/arm-none-eabi/4.5.2/../../../../arm-none-eabi/lib/thumb2\libc.a(lib_a-strcmp.o)
 .data          0x20000e6c        0x0 c:/belleii/devenv/toolchain/arm-gcc/bin/../lib/gcc/arm-none-eabi/4.5.2/../../../../arm-none-eabi/lib/thumb2\libc.a(lib_a-strlen.o)
 .data          0x20000e6c        0x0 c:/belleii/devenv/toolchain/arm-gcc/bin/../lib/gcc/arm-none-eabi/4.5.2/../../../../arm-none-eabi/lib/thumb2\libc.a(lib_a-strncpy.o)
 .data          0x20000e6c        0x0 c:/belleii/devenv/toolchain/arm-gcc/bin/../lib/gcc/arm-none-eabi/4.5.2/../../../../arm-none-eabi/lib/thumb2\libc.a(lib_a-strtol.o)
 .data          0x20000e6c        0x4 c:/belleii/devenv/toolchain/arm-gcc/bin/../lib/gcc/arm-none-eabi/4.5.2/../../../../arm-none-eabi/lib/thumb2\libc.a(lib_a-ctype_.o)
                0x20000e6c                __ctype_ptr__
 .data          0x20000e70       0xf4 c:/belleii/devenv/toolchain/arm-gcc/bin/../lib/gcc/arm-none-eabi/4.5.2/../../../../arm-none-eabi/lib/thumb2\libc.a(lib_a-impure.o)
                0x20000e70                _impure_ptr
 *(.data.*)
                0x20000f64                . = ALIGN (0x4)
                0x20000f64                _edata = .

.bss            0x20000f68     0xece0 load address 0x080311c4
                0x20000f68                . = ALIGN (0x4)
                0x20000f68                _sbss = .
 *(.bss)
 .bss           0x20000f68        0x0 CMakeFiles/firmware.dir/stm32f10x_it.c.obj
 .bss           0x20000f68        0x0 CMakeFiles/firmware.dir/lwip_test.c.obj
 .bss           0x20000f68       0x14 CMakeFiles/firmware.dir/udpecho.c.obj
 .bss           0x20000f7c        0x0 CMakeFiles/firmware.dir/dac_spi_cs_mux.c.obj
 .bss           0x20000f7c        0xc CMakeFiles/firmware.dir/adc_spi_cs_mux.c.obj
 .bss           0x20000f88       0x14 CMakeFiles/firmware.dir/belle_II_PS_node_XME_Component.c.obj
                0x20000f94                switcher_register_set
 .bss           0x20000f9c        0x0 CMakeFiles/firmware.dir/help_functions_for_calibration.c.obj
 .bss           0x20000f9c       0x10 CMakeFiles/firmware.dir/application_logic.c.obj
 .bss           0x20000fac        0xc CMakeFiles/firmware.dir/self_tests.c.obj
 .bss           0x20000fb8        0x0 CMakeFiles/firmware.dir/regulator_status_enable_pins.c.obj
 .bss           0x20000fb8        0xc CMakeFiles/firmware.dir/initialization_functions.c.obj
 .bss           0x20000fc4       0x10 CMakeFiles/firmware.dir/startup.c.obj
 .bss           0x20000fd4       0x10 CMakeFiles/firmware.dir/recalibrate_logic.c.obj
 .bss           0x20000fe4       0x10 CMakeFiles/firmware.dir/shutdown.c.obj
 .bss           0x20000ff4        0x4 CMakeFiles/firmware.dir/alive_strobe.c.obj
 .bss           0x20000ff8       0x18 CMakeFiles/firmware.dir/belle_network_connection_Component.c.obj
                0x2000100c                network_bool
 .bss           0x20001010       0x18 CMakeFiles/firmware.dir/main.c.obj
 .bss           0x20001028        0x0 target\libxme_target_startup.a(startup_stm32f10x_cl.S.obj)
 .bss           0x20001028        0x0 target\libxme_target_startup.a(port.c.obj)
 .bss           0x20001028        0x0 target\libxme_lwip_core.a(def.c.obj)
 .bss           0x20001028        0x0 target\libxme_lwip_core.a(pbuf.c.obj)
 .bss           0x20001028        0x2 target\libxme_lwip_core.a(tcp.c.obj)
 .bss           0x2000102a        0x0 target\libxme_lwip_core.a(tcp_out.c.obj)
 *fill*         0x2000102a        0x2 00
 .bss           0x2000102c        0x8 target\libxme_lwip_core.a(timers.c.obj)
 .bss           0x20001034        0x0 target\libxme_lwip_core.a(udp.c.obj)
 .bss           0x20001034       0xc8 target\libxme_lwip_core.a(sockets.c.obj)
 .bss           0x200010fc       0x10 target\libxme_lwip_core.a(tcpip.c.obj)
 .bss           0x2000110c        0x4 target\libxme_lwip_core.a(dhcp.c.obj)
 .bss           0x20001110      0x678 target\libxme_lwip_core.a(dns.c.obj)
 .bss           0x20001788        0x0 target\libxme_lwip_core.a(init.c.obj)
 .bss           0x20001788       0x14 target\libxme_lwip_core.a(mem.c.obj)
 .bss           0x2000179c     0x4048 target\libxme_lwip_core.a(memp.c.obj)
 .bss           0x200057e4        0x1 target\libxme_lwip_core.a(netif.c.obj)
 *fill*         0x200057e5        0x3 00
 .bss           0x200057e8       0x2c target\libxme_lwip_core.a(tcp_in.c.obj)
 .bss           0x20005814        0x0 target\libxme_lwip_core.a(api_lib.c.obj)
 .bss           0x20005814        0x0 target\libxme_lwip_core.a(api_msg.c.obj)
 .bss           0x20005814        0x0 target\libxme_lwip_core.a(netbuf.c.obj)
 .bss           0x20005814        0x4 target\libxme_lwip_core.a(raw.c.obj)
 .bss           0x20005818        0x0 target\libxme_lwip_core_ipv4.a(icmp.c.obj)
 .bss           0x20005818        0xc target\libxme_lwip_core_ipv4.a(igmp.c.obj)
 .bss           0x20005824        0x0 target\libxme_lwip_core_ipv4.a(inet_chksum.c.obj)
 .bss           0x20005824        0x2 target\libxme_lwip_core_ipv4.a(ip.c.obj)
 *fill*         0x20005826        0x2 00
 .bss           0x20005828       0x10 target\libxme_lwip_core_ipv4.a(ip_addr.c.obj)
 .bss           0x20005838      0x5e8 target\libxme_lwip_core_ipv4.a(ip_frag.c.obj)
 .bss           0x20005e20        0x0 target\libxme_lwip_netif_ethernet.a(enet.c.obj)
 .bss           0x20005e20       0x5c target\libxme_lwip_netif_ethernet.a(lwiplib.c.obj)
 .bss           0x20005e7c       0x10 target\libxme_lwip_netif_ethernet.a(ethernetif.c.obj)
                0x20005e7c                s_xSemaphore
 .bss           0x20005e8c        0x2 target\libxme_lwip_netif_ethernet.a(sys_arch.c.obj)
 .bss           0x20005e8e        0x0 target\libxme_lwip_netif_ethernet.a(stm32_eth.c.obj)
 .bss           0x20005e8e        0x0 target\libxme_freertos_kernel.a(queue.c.obj)
 *fill*         0x20005e8e        0x2 00
 .bss           0x20005e90      0x114 target\libxme_freertos_kernel.a(tasks.c.obj)
                0x20005e90                pxCurrentTCB
 .bss           0x20005fa4        0x0 target\libxme_freertos_kernel.a(list.c.obj)
 *fill*         0x20005fa4        0x4 00
 .bss           0x20005fa8     0x5400 target\libxme_freertos_memmang.a(heap_2.c.obj)
 .bss           0x2000b3a8        0x0 target\libxme_target_bsp.a(enet_arch.c.obj)
 .bss           0x2000b3a8        0x0 target\libxme_target_bsp.a(system_stm32f10x.c.obj)
 .bss           0x2000b3a8        0x0 target\libxme_hal_dio.a(dio_arch.c.obj)
 .bss           0x2000b3a8        0x4 target\libbelle_drivers.a(mux.c.obj)
 .bss           0x2000b3ac        0x0 target\libbelle_drivers.a(mux_inst.c.obj)
 .bss           0x2000b3ac        0x0 target\libbelle_drivers.a(gpio_config.c.obj)
 .bss           0x2000b3ac        0x4 target\libbelle_drivers.a(spi.c.obj)
 .bss           0x2000b3b0        0x0 target\libbelle_drivers.a(spi_inst.c.obj)
 .bss           0x2000b3b0        0x4 target\libbelle_drivers.a(adc_ad7322.c.obj)
 .bss           0x2000b3b4        0x0 target\libbelle_drivers.a(adc_ad7322_inst.c.obj)
 .bss           0x2000b3b4        0x4 target\libbelle_drivers.a(dac_ad5392.c.obj)
 .bss           0x2000b3b8        0x0 target\libbelle_drivers.a(dac_ad5392_inst.c.obj)
 .bss           0x2000b3b8        0x0 target\libbelle_drivers.a(adc_intern_stm32f107.c.obj)
 .bss           0x2000b3b8        0x4 target\libbelle_drivers.a(adc_intern_stm32f107_inst.c.obj)
                0x2000b3b8                temperature_adc
 .bss           0x2000b3bc        0x0 target\libbelle_drivers.a(i2c.c.obj)
 .bss           0x2000b3bc        0x0 target\libbelle_drivers.a(i2c_inst.c.obj)
 .bss           0x2000b3bc        0x0 target\libbelle_drivers.a(eeprom.c.obj)
 .bss           0x2000b3bc        0x2 target\libbelle_drivers.a(eeprom_inst.c.obj)
                0x2000b3bc                eeprom_Address
 .bss           0x2000b3be        0x0 target\libxme_stm32f0xspl_spi.a(stm32f10x_spi.c.obj)
 .bss           0x2000b3be        0x0 target\libxme_stm32f0xspl_i2c.a(stm32f10x_i2c.c.obj)
 .bss           0x2000b3be        0x0 target\libxme_stm32f0xspl_adc.a(stm32f10x_adc.c.obj)
 *fill*         0x2000b3be        0x2 00
 .bss           0x2000b3c0        0x4 target\libxme_core_core.a(core.c.obj)
 .bss           0x2000b3c4        0x4 target\libxme_core_core.a(dcc.c.obj)
 .bss           0x2000b3c8        0x8 target\libxme_core_core.a(directory.c.obj)
 .bss           0x2000b3d0        0x8 target\libxme_core_core.a(interfaceManager.c.obj)
 .bss           0x2000b3d8      0x1f8 target\libxme_core_core.a(md.c.obj)
 .bss           0x2000b5d0        0x8 target\libxme_core_core.a(nodeManager.c.obj)
 .bss           0x2000b5d8        0xc target\libxme_core_core.a(net_plugin.c.obj)
 .bss           0x2000b5e4        0x8 target\libxme_core_core.a(net_plugin_tcp.c.obj)
 .bss           0x2000b5ec        0x4 target\libxme_core_core.a(packet.c.obj)
 .bss           0x2000b5f0        0x4 target\libxme_core_core.a(resourceManager.c.obj)
 .bss           0x2000b5f4        0x4 target\libxme_core_core.a(routingTable.c.obj)
 .bss           0x2000b5f8        0x4 target\libxme_core_core.a(rr.c.obj)
 .bss           0x2000b5fc        0x4 target\libxme_core_core.a(broker.c.obj)
 .bss           0x2000b600      0x1ac target\libxme_hal_net.a(net_arch.c.obj)
 .bss           0x2000b7ac       0xcc target\libxme_lwip_netif_arp.a(etharp.c.obj)
 .bss           0x2000b878       0x24 target\libxme_lwip_core.a(netdb.c.obj)
 .bss           0x2000b89c        0x0 target\libxme_stm32f0xspl_rcc.a(stm32f10x_rcc.c.obj)
 .bss           0x2000b89c        0x0 target\libxme_stm32f0xspl_misc.a(misc.c.obj)
 .bss           0x2000b89c        0x0 target\libxme_stm32f0xspl_misc.a(stm32f10x_exti.c.obj)
 .bss           0x2000b89c        0x0 target\libxme_stm32f0xspl_gpio.a(stm32f10x_gpio.c.obj)
 .bss           0x2000b89c        0x0 target\libxme_hal_energy.a(energy_arch.c.obj)
 .bss           0x2000b89c      0x130 target\libxme_hal_sched.a(sched_arch.c.obj)
 .bss           0x2000b9cc       0x40 target\libxme_hal_sync.a(sync_arch.c.obj)
 .bss           0x2000ba0c        0x4 target\libxme_hal_table.a(table_arch.c.obj)
 .bss           0x2000ba10        0x4 target\libxme_hal_tls.a(tls_arch.c.obj)
 .bss           0x2000ba14        0x4 target\libxme_hal_random.a(random_arch.c.obj)
 .bss           0x2000ba18        0x4 target\libxme_hal_sharedPtr.a(sharedPtr_arch.c.obj)
 .bss           0x2000ba1c        0x4 target\libxme_hal_mem.a(mem_arch.c.obj)
 .bss           0x2000ba20        0x0 c:/belleii/devenv/toolchain/arm-gcc/bin/../lib/gcc/arm-none-eabi/4.5.2/thumb2\libgcc.a(_arm_addsubsf3.o)
 .bss           0x2000ba20        0x0 c:/belleii/devenv/toolchain/arm-gcc/bin/../lib/gcc/arm-none-eabi/4.5.2/thumb2\libgcc.a(_arm_muldivsf3.o)
 .bss           0x2000ba20        0x0 c:/belleii/devenv/toolchain/arm-gcc/bin/../lib/gcc/arm-none-eabi/4.5.2/thumb2\libgcc.a(_arm_fixsfsi.o)
 .bss           0x2000ba20        0x0 c:/belleii/devenv/toolchain/arm-gcc/bin/../lib/gcc/arm-none-eabi/4.5.2/thumb2\libgcc.a(_aeabi_ldivmod.o)
 .bss           0x2000ba20        0x0 c:/belleii/devenv/toolchain/arm-gcc/bin/../lib/gcc/arm-none-eabi/4.5.2/thumb2\libgcc.a(_aeabi_uldivmod.o)
 .bss           0x2000ba20        0x0 c:/belleii/devenv/toolchain/arm-gcc/bin/../lib/gcc/arm-none-eabi/4.5.2/thumb2\libgcc.a(bpabi.o)
 .bss           0x2000ba20        0x0 c:/belleii/devenv/toolchain/arm-gcc/bin/../lib/gcc/arm-none-eabi/4.5.2/thumb2\libgcc.a(_dvmd_tls.o)
 .bss           0x2000ba20        0x0 c:/belleii/devenv/toolchain/arm-gcc/bin/../lib/gcc/arm-none-eabi/4.5.2/thumb2\libgcc.a(_divdi3.o)
 .bss           0x2000ba20        0x0 c:/belleii/devenv/toolchain/arm-gcc/bin/../lib/gcc/arm-none-eabi/4.5.2/thumb2\libgcc.a(_udivdi3.o)
 .bss           0x2000ba20        0x0 c:/belleii/devenv/toolchain/arm-gcc/bin/../lib/gcc/arm-none-eabi/4.5.2/thumb2\libgcc.a(_udivsi3.o)
 .bss           0x2000ba20        0x0 c:/belleii/devenv/toolchain/arm-gcc/bin/../lib/gcc/arm-none-eabi/4.5.2/../../../../arm-none-eabi/lib/thumb2\libc.a(lib_a-atoi.o)
 .bss           0x2000ba20        0x0 c:/belleii/devenv/toolchain/arm-gcc/bin/../lib/gcc/arm-none-eabi/4.5.2/../../../../arm-none-eabi/lib/thumb2\libc.a(lib_a-memcmp.o)
 .bss           0x2000ba20        0x0 c:/belleii/devenv/toolchain/arm-gcc/bin/../lib/gcc/arm-none-eabi/4.5.2/../../../../arm-none-eabi/lib/thumb2\libc.a(lib_a-memcpy.o)
 .bss           0x2000ba20        0x0 c:/belleii/devenv/toolchain/arm-gcc/bin/../lib/gcc/arm-none-eabi/4.5.2/../../../../arm-none-eabi/lib/thumb2\libc.a(lib_a-memset.o)
 .bss           0x2000ba20        0x0 c:/belleii/devenv/toolchain/arm-gcc/bin/../lib/gcc/arm-none-eabi/4.5.2/../../../../arm-none-eabi/lib/thumb2\libc.a(lib_a-strcmp.o)
 .bss           0x2000ba20        0x0 c:/belleii/devenv/toolchain/arm-gcc/bin/../lib/gcc/arm-none-eabi/4.5.2/../../../../arm-none-eabi/lib/thumb2\libc.a(lib_a-strlen.o)
 .bss           0x2000ba20        0x0 c:/belleii/devenv/toolchain/arm-gcc/bin/../lib/gcc/arm-none-eabi/4.5.2/../../../../arm-none-eabi/lib/thumb2\libc.a(lib_a-strncpy.o)
 .bss           0x2000ba20        0x0 c:/belleii/devenv/toolchain/arm-gcc/bin/../lib/gcc/arm-none-eabi/4.5.2/../../../../arm-none-eabi/lib/thumb2\libc.a(lib_a-strtol.o)
 .bss           0x2000ba20        0x0 c:/belleii/devenv/toolchain/arm-gcc/bin/../lib/gcc/arm-none-eabi/4.5.2/../../../../arm-none-eabi/lib/thumb2\libc.a(lib_a-ctype_.o)
 .bss           0x2000ba20        0x0 c:/belleii/devenv/toolchain/arm-gcc/bin/../lib/gcc/arm-none-eabi/4.5.2/../../../../arm-none-eabi/lib/thumb2\libc.a(lib_a-impure.o)
 *(COMMON)
 COMMON         0x2000ba20       0x6c CMakeFiles/firmware.dir/udpecho.c.obj
                0x2000ba20                xme_core_log_logCallback
                0x2000ba24                buffer
                0x2000ba88                lSocket
 COMMON         0x2000ba8c       0x40 CMakeFiles/firmware.dir/dac_spi_cs_mux.c.obj
                0x2000ba8c                buffer2
 COMMON         0x2000bacc      0x4bc CMakeFiles/firmware.dir/adc_spi_cs_mux.c.obj
                0x2000bacc                monitor_node_information
                0x2000bc54                info_commandType
                0x2000bc55                firmware_version
                0x2000bc58                message_queue
                0x2000bc5c                node_Number
                0x2000bc60                log_node_information
                0x2000be08                monitor_node_info_all_channels
 COMMON         0x2000bf88       0x93 CMakeFiles/firmware.dir/belle_II_PS_node_XME_Component.c.obj
                0x2000bf88                pubHandle
                0x2000bf8a                pubHandleMonitor
                0x2000bf8c                subHandleCommand
                0x2000bf90                dataToSend
                0x2000bfc4                eeprom_read_address
                0x2000bfc6                data_arrived
                0x2000bfc8                descr
                0x2000c00c                comm_task
                0x2000c00e                pubHandleSWRegisterSet
                0x2000c010                data_arrived_recal
                0x2000c011                test_recalibrate
                0x2000c012                subHandleCalibrate
                0x2000c014                subHandleSWRegisterSetDone
                0x2000c016                data_arrived_cal
                0x2000c018                subHandleRecalibrate
                0x2000c01a                test_set_value
 *fill*         0x2000c01b        0x5 00
 COMMON         0x2000c020      0x360 CMakeFiles/firmware.dir/belle_network_connection_Component.c.obj
                0x2000c020                xme_adv_testHeartbeat_heartbeatTable
                0x2000c378                catchAllHeartbeats
                0x2000c37c                maxTimestampAge
 COMMON         0x2000c380        0x1 target\libxme_lwip_core.a(pbuf.c.obj)
                0x2000c380                pbuf_free_ooseq_pending
 *fill*         0x2000c381        0x3 00
 COMMON         0x2000c384       0x1c target\libxme_lwip_core.a(tcp.c.obj)
                0x2000c384                tcp_active_pcbs_changed
                0x2000c388                tcp_active_pcbs
                0x2000c38c                tcp_ticks
                0x2000c390                tcp_listen_pcbs
                0x2000c394                tcp_tmp_pcb
                0x2000c398                tcp_bound_pcbs
                0x2000c39c                tcp_tw_pcbs
 COMMON         0x2000c3a0        0x4 target\libxme_lwip_core.a(udp.c.obj)
                0x2000c3a0                udp_pcbs
 COMMON         0x2000c3a4       0x34 target\libxme_lwip_core.a(dhcp.c.obj)
                0x2000c3a4                dhcp_rx_options_given
                0x2000c3b0                dhcp_rx_options_val
 COMMON         0x2000c3d8      0x654 target\libxme_lwip_core.a(mem.c.obj)
                0x2000c3d8                ram_heap
 COMMON         0x2000ca2c        0x8 target\libxme_lwip_core.a(netif.c.obj)
                0x2000ca2c                netif_list
                0x2000ca30                netif_default
 COMMON         0x2000ca34        0x4 target\libxme_lwip_core.a(tcp_in.c.obj)
                0x2000ca34                tcp_input_pcb
 COMMON         0x2000ca38       0x10 target\libxme_lwip_core_ipv4.a(ip.c.obj)
                0x2000ca38                current_iphdr_src
                0x2000ca3c                current_netif
                0x2000ca40                current_iphdr_dest
                0x2000ca44                current_header
 COMMON         0x2000ca48        0x4 target\libxme_lwip_netif_ethernet.a(lwiplib.c.obj)
                0x2000ca48                i
 COMMON         0x2000ca4c     0x2410 target\libxme_lwip_netif_ethernet.a(ethernetif.c.obj)
                0x2000ca4c                tcp_end_time
                0x2000ca50                arp_end_time
                0x2000ca54                DMATxDscrTab
                0x2000ca74                Rx_Buff
                0x2000e234                MACaddr
                0x2000e23c                DMARxDscrTab
                0x2000e27c                Tx_Buff
 COMMON         0x2000ee5c       0x10 target\libxme_lwip_netif_ethernet.a(stm32_eth.c.obj)
                0x2000ee5c                DMAPTPRxDescToGet
                0x2000ee60                DMARxDescToGet
                0x2000ee64                DMATxDescToSet
                0x2000ee68                DMAPTPTxDescToSet
 COMMON         0x2000ee6c      0x110 target\libxme_core_core.a(interfaceManager.c.obj)
                0x2000ee6c                criticalSectionHandle
                0x2000ee70                xme_core_interfaceManager_interfaceTable
                0x2000eea8                xme_core_interfaceManager_channelStatusTable
 COMMON         0x2000ef7c        0x2 target\libxme_core_core.a(net_plugin.c.obj)
                0x2000ef7c                receiveDataTaskHandle
 *fill*         0x2000ef7e        0x2 00
 COMMON         0x2000ef80      0x226 target\libxme_core_core.a(net_plugin_tcp.c.obj)
                0x2000ef80                xme_core_net_plugin_tcp_ch_to_phy_mapping_table
                0x2000f008                xme_core_net_plugin_tcp_writerTable
                0x2000f068                workingTaskHandle
                0x2000f06c                xme_core_net_plugin_tcp_listeningTable
                0x2000f0f4                xme_core_net_plugin_tcp_readerTable
                0x2000f1a4                connectingTaskHandle
 *fill*         0x2000f1a6        0x2 00
 COMMON         0x2000f1a8      0x6f4 target\libxme_core_core.a(resourceManager.c.obj)
                0x2000f1a8                xme_core_resourceManager_config
 COMMON         0x2000f89c      0x218 target\libxme_core_core.a(routingTable.c.obj)
                0x2000f89c                xme_core_routingTable_config
 COMMON         0x2000fab4        0x4 target\libxme_lwip_core.a(netdb.c.obj)
                0x2000fab4                h_errno
 COMMON         0x2000fab8      0x190 target\libxme_hal_sharedPtr.a(sharedPtr_arch.c.obj)
                0x2000fab8                xme_hal_sharedPtr_buffer
                0x2000fc48                . = ALIGN (0x4)
                0x2000fc48                _ebss = .
                0x2000fc48                PROVIDE (end, _ebss)
                0x2000fc48                PROVIDE (_end, _ebss)

._usrstack      0x2000fc48      0x100 load address 0x0803fea4
                0x2000fc48                . = ALIGN (0x4)
                0x2000fc48                _susrstack = .
                0x2000fd48                . = (. + _Minimum_Stack_Size)
 *fill*         0x2000fc48      0x100 00
                0x2000fd48                . = ALIGN (0x4)
                0x2000fd48                _eusrstack = .

.b1text
 *(.b1text)
 *(.b1rodata)
 *(.b1rodata*)

.eb0text
 *(.eb0text)
 *(.eb0rodata)
 *(.eb0rodata*)

.eb1text
 *(.eb1text)
 *(.eb1rodata)
 *(.eb1rodata*)

.eb2text
 *(.eb2text)
 *(.eb2rodata)
 *(.eb2rodata*)

.eb3text
 *(.eb3text)
 *(.eb3rodata)
 *(.eb3rodata*)
                0x2000fd48                __exidx_start = .
                0x2000fd48                __exidx_end = .

/DISCARD/
 libc.a(*)
 libm.a(*)
 libgcc.a(*)

.stab
 *(.stab)

.stabstr
 *(.stabstr)

.stab.excl
 *(.stab.excl)

.stab.exclstr
 *(.stab.exclstr)

.stab.index
 *(.stab.index)

.stab.indexstr
 *(.stab.indexstr)

.ARM.attributes
                0x00000000       0x2f
 .ARM.attributes
                0x00000000       0x31 CMakeFiles/firmware.dir/stm32f10x_it.c.obj
 .ARM.attributes
                0x00000031       0x31 CMakeFiles/firmware.dir/lwip_test.c.obj
 .ARM.attributes
                0x00000062       0x31 CMakeFiles/firmware.dir/udpecho.c.obj
 .ARM.attributes
                0x00000093       0x31 CMakeFiles/firmware.dir/dac_spi_cs_mux.c.obj
 .ARM.attributes
                0x000000c4       0x31 CMakeFiles/firmware.dir/adc_spi_cs_mux.c.obj
 .ARM.attributes
                0x000000f5       0x31 CMakeFiles/firmware.dir/belle_II_PS_node_XME_Component.c.obj
 .ARM.attributes
                0x00000126       0x31 CMakeFiles/firmware.dir/help_functions_for_calibration.c.obj
 .ARM.attributes
                0x00000157       0x31 CMakeFiles/firmware.dir/application_logic.c.obj
 .ARM.attributes
                0x00000188       0x31 CMakeFiles/firmware.dir/self_tests.c.obj
 .ARM.attributes
                0x000001b9       0x31 CMakeFiles/firmware.dir/regulator_status_enable_pins.c.obj
 .ARM.attributes
                0x000001ea       0x31 CMakeFiles/firmware.dir/initialization_functions.c.obj
 .ARM.attributes
                0x0000021b       0x31 CMakeFiles/firmware.dir/startup.c.obj
 .ARM.attributes
                0x0000024c       0x31 CMakeFiles/firmware.dir/recalibrate_logic.c.obj
 .ARM.attributes
                0x0000027d       0x31 CMakeFiles/firmware.dir/shutdown.c.obj
 .ARM.attributes
                0x000002ae       0x31 CMakeFiles/firmware.dir/alive_strobe.c.obj
 .ARM.attributes
                0x000002df       0x31 CMakeFiles/firmware.dir/belle_network_connection_Component.c.obj
 .ARM.attributes
                0x00000310       0x31 CMakeFiles/firmware.dir/main.c.obj
 .ARM.attributes
                0x00000341       0x21 target\libxme_target_startup.a(startup_stm32f10x_cl.S.obj)
 .ARM.attributes
                0x00000362       0x31 target\libxme_target_startup.a(port.c.obj)
 .ARM.attributes
                0x00000393       0x31 target\libxme_lwip_core.a(def.c.obj)
 .ARM.attributes
                0x000003c4       0x31 target\libxme_lwip_core.a(pbuf.c.obj)
 .ARM.attributes
                0x000003f5       0x31 target\libxme_lwip_core.a(tcp.c.obj)
 .ARM.attributes
                0x00000426       0x31 target\libxme_lwip_core.a(tcp_out.c.obj)
 .ARM.attributes
                0x00000457       0x31 target\libxme_lwip_core.a(timers.c.obj)
 .ARM.attributes
                0x00000488       0x31 target\libxme_lwip_core.a(udp.c.obj)
 .ARM.attributes
                0x000004b9       0x31 target\libxme_lwip_core.a(sockets.c.obj)
 .ARM.attributes
                0x000004ea       0x31 target\libxme_lwip_core.a(tcpip.c.obj)
 .ARM.attributes
                0x0000051b       0x31 target\libxme_lwip_core.a(dhcp.c.obj)
 .ARM.attributes
                0x0000054c       0x31 target\libxme_lwip_core.a(dns.c.obj)
 .ARM.attributes
                0x0000057d       0x31 target\libxme_lwip_core.a(init.c.obj)
 .ARM.attributes
                0x000005ae       0x31 target\libxme_lwip_core.a(mem.c.obj)
 .ARM.attributes
                0x000005df       0x31 target\libxme_lwip_core.a(memp.c.obj)
 .ARM.attributes
                0x00000610       0x31 target\libxme_lwip_core.a(netif.c.obj)
 .ARM.attributes
                0x00000641       0x31 target\libxme_lwip_core.a(tcp_in.c.obj)
 .ARM.attributes
                0x00000672       0x31 target\libxme_lwip_core.a(api_lib.c.obj)
 .ARM.attributes
                0x000006a3       0x31 target\libxme_lwip_core.a(api_msg.c.obj)
 .ARM.attributes
                0x000006d4       0x31 target\libxme_lwip_core.a(netbuf.c.obj)
 .ARM.attributes
                0x00000705       0x31 target\libxme_lwip_core.a(raw.c.obj)
 .ARM.attributes
                0x00000736       0x31 target\libxme_lwip_core_ipv4.a(icmp.c.obj)
 .ARM.attributes
                0x00000767       0x31 target\libxme_lwip_core_ipv4.a(igmp.c.obj)
 .ARM.attributes
                0x00000798       0x31 target\libxme_lwip_core_ipv4.a(inet_chksum.c.obj)
 .ARM.attributes
                0x000007c9       0x31 target\libxme_lwip_core_ipv4.a(ip.c.obj)
 .ARM.attributes
                0x000007fa       0x31 target\libxme_lwip_core_ipv4.a(ip_addr.c.obj)
 .ARM.attributes
                0x0000082b       0x31 target\libxme_lwip_core_ipv4.a(ip_frag.c.obj)
 .ARM.attributes
                0x0000085c       0x31 target\libxme_lwip_netif_ethernet.a(enet.c.obj)
 .ARM.attributes
                0x0000088d       0x31 target\libxme_lwip_netif_ethernet.a(lwiplib.c.obj)
 .ARM.attributes
                0x000008be       0x31 target\libxme_lwip_netif_ethernet.a(ethernetif.c.obj)
 .ARM.attributes
                0x000008ef       0x31 target\libxme_lwip_netif_ethernet.a(sys_arch.c.obj)
 .ARM.attributes
                0x00000920       0x31 target\libxme_lwip_netif_ethernet.a(stm32_eth.c.obj)
 .ARM.attributes
                0x00000951       0x31 target\libxme_freertos_kernel.a(queue.c.obj)
 .ARM.attributes
                0x00000982       0x31 target\libxme_freertos_kernel.a(tasks.c.obj)
 .ARM.attributes
                0x000009b3       0x31 target\libxme_freertos_kernel.a(list.c.obj)
 .ARM.attributes
                0x000009e4       0x31 target\libxme_freertos_memmang.a(heap_2.c.obj)
 .ARM.attributes
                0x00000a15       0x31 target\libxme_target_bsp.a(enet_arch.c.obj)
 .ARM.attributes
                0x00000a46       0x31 target\libxme_target_bsp.a(system_stm32f10x.c.obj)
 .ARM.attributes
                0x00000a77       0x31 target\libxme_hal_dio.a(dio_arch.c.obj)
 .ARM.attributes
                0x00000aa8       0x31 target\libbelle_drivers.a(mux.c.obj)
 .ARM.attributes
                0x00000ad9       0x31 target\libbelle_drivers.a(mux_inst.c.obj)
 .ARM.attributes
                0x00000b0a       0x31 target\libbelle_drivers.a(gpio_config.c.obj)
 .ARM.attributes
                0x00000b3b       0x31 target\libbelle_drivers.a(spi.c.obj)
 .ARM.attributes
                0x00000b6c       0x31 target\libbelle_drivers.a(spi_inst.c.obj)
 .ARM.attributes
                0x00000b9d       0x31 target\libbelle_drivers.a(adc_ad7322.c.obj)
 .ARM.attributes
                0x00000bce       0x31 target\libbelle_drivers.a(adc_ad7322_inst.c.obj)
 .ARM.attributes
                0x00000bff       0x31 target\libbelle_drivers.a(dac_ad5392.c.obj)
 .ARM.attributes
                0x00000c30       0x31 target\libbelle_drivers.a(dac_ad5392_inst.c.obj)
 .ARM.attributes
                0x00000c61       0x31 target\libbelle_drivers.a(adc_intern_stm32f107.c.obj)
 .ARM.attributes
                0x00000c92       0x31 target\libbelle_drivers.a(adc_intern_stm32f107_inst.c.obj)
 .ARM.attributes
                0x00000cc3       0x31 target\libbelle_drivers.a(i2c.c.obj)
 .ARM.attributes
                0x00000cf4       0x31 target\libbelle_drivers.a(i2c_inst.c.obj)
 .ARM.attributes
                0x00000d25       0x31 target\libbelle_drivers.a(eeprom.c.obj)
 .ARM.attributes
                0x00000d56       0x31 target\libbelle_drivers.a(eeprom_inst.c.obj)
 .ARM.attributes
                0x00000d87       0x31 target\libxme_stm32f0xspl_spi.a(stm32f10x_spi.c.obj)
 .ARM.attributes
                0x00000db8       0x31 target\libxme_stm32f0xspl_i2c.a(stm32f10x_i2c.c.obj)
 .ARM.attributes
                0x00000de9       0x31 target\libxme_stm32f0xspl_adc.a(stm32f10x_adc.c.obj)
 .ARM.attributes
                0x00000e1a       0x31 target\libxme_core_core.a(core.c.obj)
 .ARM.attributes
                0x00000e4b       0x31 target\libxme_core_core.a(dcc.c.obj)
 .ARM.attributes
                0x00000e7c       0x31 target\libxme_core_core.a(directory.c.obj)
 .ARM.attributes
                0x00000ead       0x31 target\libxme_core_core.a(interfaceManager.c.obj)
 .ARM.attributes
                0x00000ede       0x31 target\libxme_core_core.a(md.c.obj)
 .ARM.attributes
                0x00000f0f       0x31 target\libxme_core_core.a(nodeManager.c.obj)
 .ARM.attributes
                0x00000f40       0x31 target\libxme_core_core.a(net_plugin.c.obj)
 .ARM.attributes
                0x00000f71       0x31 target\libxme_core_core.a(net_plugin_tcp.c.obj)
 .ARM.attributes
                0x00000fa2       0x31 target\libxme_core_core.a(packet.c.obj)
 .ARM.attributes
                0x00000fd3       0x31 target\libxme_core_core.a(resourceManager.c.obj)
 .ARM.attributes
                0x00001004       0x31 target\libxme_core_core.a(routingTable.c.obj)
 .ARM.attributes
                0x00001035       0x31 target\libxme_core_core.a(rr.c.obj)
 .ARM.attributes
                0x00001066       0x31 target\libxme_core_core.a(broker.c.obj)
 .ARM.attributes
                0x00001097       0x31 target\libxme_hal_net.a(net_arch.c.obj)
 .ARM.attributes
                0x000010c8       0x31 target\libxme_lwip_netif_arp.a(etharp.c.obj)
 .ARM.attributes
                0x000010f9       0x31 target\libxme_lwip_core.a(netdb.c.obj)
 .ARM.attributes
                0x0000112a       0x31 target\libxme_stm32f0xspl_rcc.a(stm32f10x_rcc.c.obj)
 .ARM.attributes
                0x0000115b       0x31 target\libxme_stm32f0xspl_misc.a(misc.c.obj)
 .ARM.attributes
                0x0000118c       0x31 target\libxme_stm32f0xspl_misc.a(stm32f10x_exti.c.obj)
 .ARM.attributes
                0x000011bd       0x31 target\libxme_stm32f0xspl_gpio.a(stm32f10x_gpio.c.obj)
 .ARM.attributes
                0x000011ee       0x31 target\libxme_hal_energy.a(energy_arch.c.obj)
 .ARM.attributes
                0x0000121f       0x31 target\libxme_hal_sched.a(sched_arch.c.obj)
 .ARM.attributes
                0x00001250       0x31 target\libxme_hal_sync.a(sync_arch.c.obj)
 .ARM.attributes
                0x00001281       0x31 target\libxme_hal_table.a(table_arch.c.obj)
 .ARM.attributes
                0x000012b2       0x31 target\libxme_hal_tls.a(tls_arch.c.obj)
 .ARM.attributes
                0x000012e3       0x31 target\libxme_hal_random.a(random_arch.c.obj)
 .ARM.attributes
                0x00001314       0x31 target\libxme_hal_sharedPtr.a(sharedPtr_arch.c.obj)
 .ARM.attributes
                0x00001345       0x31 target\libxme_hal_mem.a(mem_arch.c.obj)
 .ARM.attributes
                0x00001376       0x1b c:/belleii/devenv/toolchain/arm-gcc/bin/../lib/gcc/arm-none-eabi/4.5.2/thumb2\libgcc.a(_arm_addsubsf3.o)
 .ARM.attributes
                0x00001391       0x1b c:/belleii/devenv/toolchain/arm-gcc/bin/../lib/gcc/arm-none-eabi/4.5.2/thumb2\libgcc.a(_arm_muldivsf3.o)
 .ARM.attributes
                0x000013ac       0x1b c:/belleii/devenv/toolchain/arm-gcc/bin/../lib/gcc/arm-none-eabi/4.5.2/thumb2\libgcc.a(_arm_fixsfsi.o)
 .ARM.attributes
                0x000013c7       0x1b c:/belleii/devenv/toolchain/arm-gcc/bin/../lib/gcc/arm-none-eabi/4.5.2/thumb2\libgcc.a(_aeabi_ldivmod.o)
 .ARM.attributes
                0x000013e2       0x1b c:/belleii/devenv/toolchain/arm-gcc/bin/../lib/gcc/arm-none-eabi/4.5.2/thumb2\libgcc.a(_aeabi_uldivmod.o)
 .ARM.attributes
                0x000013fd       0x29 c:/belleii/devenv/toolchain/arm-gcc/bin/../lib/gcc/arm-none-eabi/4.5.2/thumb2\libgcc.a(bpabi.o)
 .ARM.attributes
                0x00001426       0x1b c:/belleii/devenv/toolchain/arm-gcc/bin/../lib/gcc/arm-none-eabi/4.5.2/thumb2\libgcc.a(_dvmd_tls.o)
 .ARM.attributes
                0x00001441       0x29 c:/belleii/devenv/toolchain/arm-gcc/bin/../lib/gcc/arm-none-eabi/4.5.2/thumb2\libgcc.a(_divdi3.o)
 .ARM.attributes
                0x0000146a       0x29 c:/belleii/devenv/toolchain/arm-gcc/bin/../lib/gcc/arm-none-eabi/4.5.2/thumb2\libgcc.a(_udivdi3.o)
 .ARM.attributes
                0x00001493       0x1b c:/belleii/devenv/toolchain/arm-gcc/bin/../lib/gcc/arm-none-eabi/4.5.2/thumb2\libgcc.a(_udivsi3.o)
 .ARM.attributes
                0x000014ae       0x29 c:/belleii/devenv/toolchain/arm-gcc/bin/../lib/gcc/arm-none-eabi/4.5.2/../../../../arm-none-eabi/lib/thumb2\libc.a(lib_a-atoi.o)
 .ARM.attributes
                0x000014d7       0x29 c:/belleii/devenv/toolchain/arm-gcc/bin/../lib/gcc/arm-none-eabi/4.5.2/../../../../arm-none-eabi/lib/thumb2\libc.a(lib_a-memcmp.o)
 .ARM.attributes
                0x00001500       0x29 c:/belleii/devenv/toolchain/arm-gcc/bin/../lib/gcc/arm-none-eabi/4.5.2/../../../../arm-none-eabi/lib/thumb2\libc.a(lib_a-memcpy.o)
 .ARM.attributes
                0x00001529       0x29 c:/belleii/devenv/toolchain/arm-gcc/bin/../lib/gcc/arm-none-eabi/4.5.2/../../../../arm-none-eabi/lib/thumb2\libc.a(lib_a-memset.o)
 .ARM.attributes
                0x00001552       0x29 c:/belleii/devenv/toolchain/arm-gcc/bin/../lib/gcc/arm-none-eabi/4.5.2/../../../../arm-none-eabi/lib/thumb2\libc.a(lib_a-strcmp.o)
 .ARM.attributes
                0x0000157b       0x29 c:/belleii/devenv/toolchain/arm-gcc/bin/../lib/gcc/arm-none-eabi/4.5.2/../../../../arm-none-eabi/lib/thumb2\libc.a(lib_a-strlen.o)
 .ARM.attributes
                0x000015a4       0x29 c:/belleii/devenv/toolchain/arm-gcc/bin/../lib/gcc/arm-none-eabi/4.5.2/../../../../arm-none-eabi/lib/thumb2\libc.a(lib_a-strncpy.o)
 .ARM.attributes
                0x000015cd       0x29 c:/belleii/devenv/toolchain/arm-gcc/bin/../lib/gcc/arm-none-eabi/4.5.2/../../../../arm-none-eabi/lib/thumb2\libc.a(lib_a-strtol.o)
 .ARM.attributes
                0x000015f6       0x29 c:/belleii/devenv/toolchain/arm-gcc/bin/../lib/gcc/arm-none-eabi/4.5.2/../../../../arm-none-eabi/lib/thumb2\libc.a(lib_a-ctype_.o)
 .ARM.attributes
                0x0000161f       0x29 c:/belleii/devenv/toolchain/arm-gcc/bin/../lib/gcc/arm-none-eabi/4.5.2/../../../../arm-none-eabi/lib/thumb2\libc.a(lib_a-impure.o)

.comment        0x00000000       0x2a
 *(.comment)
 .comment       0x00000000       0x2a CMakeFiles/firmware.dir/stm32f10x_it.c.obj
                                 0x2b (size before relaxing)
 .comment       0x00000000       0x2b CMakeFiles/firmware.dir/lwip_test.c.obj
 .comment       0x00000000       0x2b CMakeFiles/firmware.dir/udpecho.c.obj
 .comment       0x00000000       0x2b CMakeFiles/firmware.dir/dac_spi_cs_mux.c.obj
 .comment       0x00000000       0x2b CMakeFiles/firmware.dir/adc_spi_cs_mux.c.obj
 .comment       0x00000000       0x2b CMakeFiles/firmware.dir/belle_II_PS_node_XME_Component.c.obj
 .comment       0x00000000       0x2b CMakeFiles/firmware.dir/help_functions_for_calibration.c.obj
 .comment       0x00000000       0x2b CMakeFiles/firmware.dir/application_logic.c.obj
 .comment       0x00000000       0x2b CMakeFiles/firmware.dir/self_tests.c.obj
 .comment       0x00000000       0x2b CMakeFiles/firmware.dir/regulator_status_enable_pins.c.obj
 .comment       0x00000000       0x2b CMakeFiles/firmware.dir/initialization_functions.c.obj
 .comment       0x00000000       0x2b CMakeFiles/firmware.dir/startup.c.obj
 .comment       0x00000000       0x2b CMakeFiles/firmware.dir/recalibrate_logic.c.obj
 .comment       0x00000000       0x2b CMakeFiles/firmware.dir/shutdown.c.obj
 .comment       0x00000000       0x2b CMakeFiles/firmware.dir/alive_strobe.c.obj
 .comment       0x00000000       0x2b CMakeFiles/firmware.dir/belle_network_connection_Component.c.obj
 .comment       0x00000000       0x2b CMakeFiles/firmware.dir/main.c.obj
 .comment       0x00000000       0x2b target\libxme_target_startup.a(port.c.obj)
 .comment       0x00000000       0x2b target\libxme_lwip_core.a(def.c.obj)
 .comment       0x00000000       0x2b target\libxme_lwip_core.a(pbuf.c.obj)
 .comment       0x00000000       0x2b target\libxme_lwip_core.a(tcp.c.obj)
 .comment       0x00000000       0x2b target\libxme_lwip_core.a(tcp_out.c.obj)
 .comment       0x00000000       0x2b target\libxme_lwip_core.a(timers.c.obj)
 .comment       0x00000000       0x2b target\libxme_lwip_core.a(udp.c.obj)
 .comment       0x00000000       0x2b target\libxme_lwip_core.a(sockets.c.obj)
 .comment       0x00000000       0x2b target\libxme_lwip_core.a(tcpip.c.obj)
 .comment       0x00000000       0x2b target\libxme_lwip_core.a(dhcp.c.obj)
 .comment       0x00000000       0x2b target\libxme_lwip_core.a(dns.c.obj)
 .comment       0x00000000       0x2b target\libxme_lwip_core.a(init.c.obj)
 .comment       0x00000000       0x2b target\libxme_lwip_core.a(mem.c.obj)
 .comment       0x00000000       0x2b target\libxme_lwip_core.a(memp.c.obj)
 .comment       0x00000000       0x2b target\libxme_lwip_core.a(netif.c.obj)
 .comment       0x00000000       0x2b target\libxme_lwip_core.a(tcp_in.c.obj)
 .comment       0x00000000       0x2b target\libxme_lwip_core.a(api_lib.c.obj)
 .comment       0x00000000       0x2b target\libxme_lwip_core.a(api_msg.c.obj)
 .comment       0x00000000       0x2b target\libxme_lwip_core.a(netbuf.c.obj)
 .comment       0x00000000       0x2b target\libxme_lwip_core.a(raw.c.obj)
 .comment       0x00000000       0x2b target\libxme_lwip_core_ipv4.a(icmp.c.obj)
 .comment       0x00000000       0x2b target\libxme_lwip_core_ipv4.a(igmp.c.obj)
 .comment       0x00000000       0x2b target\libxme_lwip_core_ipv4.a(inet_chksum.c.obj)
 .comment       0x00000000       0x2b target\libxme_lwip_core_ipv4.a(ip.c.obj)
 .comment       0x00000000       0x2b target\libxme_lwip_core_ipv4.a(ip_addr.c.obj)
 .comment       0x00000000       0x2b target\libxme_lwip_core_ipv4.a(ip_frag.c.obj)
 .comment       0x00000000       0x2b target\libxme_lwip_netif_ethernet.a(enet.c.obj)
 .comment       0x00000000       0x2b target\libxme_lwip_netif_ethernet.a(lwiplib.c.obj)
 .comment       0x00000000       0x2b target\libxme_lwip_netif_ethernet.a(ethernetif.c.obj)
 .comment       0x00000000       0x2b target\libxme_lwip_netif_ethernet.a(sys_arch.c.obj)
 .comment       0x00000000       0x2b target\libxme_lwip_netif_ethernet.a(stm32_eth.c.obj)
 .comment       0x00000000       0x2b target\libxme_freertos_kernel.a(queue.c.obj)
 .comment       0x00000000       0x2b target\libxme_freertos_kernel.a(tasks.c.obj)
 .comment       0x00000000       0x2b target\libxme_freertos_kernel.a(list.c.obj)
 .comment       0x00000000       0x2b target\libxme_freertos_memmang.a(heap_2.c.obj)
 .comment       0x00000000       0x2b target\libxme_target_bsp.a(enet_arch.c.obj)
 .comment       0x00000000       0x2b target\libxme_target_bsp.a(system_stm32f10x.c.obj)
 .comment       0x00000000       0x2b target\libxme_hal_dio.a(dio_arch.c.obj)
 .comment       0x00000000       0x2b target\libbelle_drivers.a(mux.c.obj)
 .comment       0x00000000       0x2b target\libbelle_drivers.a(mux_inst.c.obj)
 .comment       0x00000000       0x2b target\libbelle_drivers.a(gpio_config.c.obj)
 .comment       0x00000000       0x2b target\libbelle_drivers.a(spi.c.obj)
 .comment       0x00000000       0x2b target\libbelle_drivers.a(spi_inst.c.obj)
 .comment       0x00000000       0x2b target\libbelle_drivers.a(adc_ad7322.c.obj)
 .comment       0x00000000       0x2b target\libbelle_drivers.a(adc_ad7322_inst.c.obj)
 .comment       0x00000000       0x2b target\libbelle_drivers.a(dac_ad5392.c.obj)
 .comment       0x00000000       0x2b target\libbelle_drivers.a(dac_ad5392_inst.c.obj)
 .comment       0x00000000       0x2b target\libbelle_drivers.a(adc_intern_stm32f107.c.obj)
 .comment       0x00000000       0x2b target\libbelle_drivers.a(adc_intern_stm32f107_inst.c.obj)
 .comment       0x00000000       0x2b target\libbelle_drivers.a(i2c.c.obj)
 .comment       0x00000000       0x2b target\libbelle_drivers.a(i2c_inst.c.obj)
 .comment       0x00000000       0x2b target\libbelle_drivers.a(eeprom.c.obj)
 .comment       0x00000000       0x2b target\libbelle_drivers.a(eeprom_inst.c.obj)
 .comment       0x00000000       0x2b target\libxme_stm32f0xspl_spi.a(stm32f10x_spi.c.obj)
 .comment       0x00000000       0x2b target\libxme_stm32f0xspl_i2c.a(stm32f10x_i2c.c.obj)
 .comment       0x00000000       0x2b target\libxme_stm32f0xspl_adc.a(stm32f10x_adc.c.obj)
 .comment       0x00000000       0x2b target\libxme_core_core.a(core.c.obj)
 .comment       0x00000000       0x2b target\libxme_core_core.a(dcc.c.obj)
 .comment       0x00000000       0x2b target\libxme_core_core.a(directory.c.obj)
 .comment       0x00000000       0x2b target\libxme_core_core.a(interfaceManager.c.obj)
 .comment       0x00000000       0x2b target\libxme_core_core.a(md.c.obj)
 .comment       0x00000000       0x2b target\libxme_core_core.a(nodeManager.c.obj)
 .comment       0x00000000       0x2b target\libxme_core_core.a(net_plugin.c.obj)
 .comment       0x00000000       0x2b target\libxme_core_core.a(net_plugin_tcp.c.obj)
 .comment       0x00000000       0x2b target\libxme_core_core.a(packet.c.obj)
 .comment       0x00000000       0x2b target\libxme_core_core.a(resourceManager.c.obj)
 .comment       0x00000000       0x2b target\libxme_core_core.a(routingTable.c.obj)
 .comment       0x00000000       0x2b target\libxme_core_core.a(rr.c.obj)
 .comment       0x00000000       0x2b target\libxme_core_core.a(broker.c.obj)
 .comment       0x00000000       0x2b target\libxme_hal_net.a(net_arch.c.obj)
 .comment       0x00000000       0x2b target\libxme_lwip_netif_arp.a(etharp.c.obj)
 .comment       0x00000000       0x2b target\libxme_lwip_core.a(netdb.c.obj)
 .comment       0x00000000       0x2b target\libxme_stm32f0xspl_rcc.a(stm32f10x_rcc.c.obj)
 .comment       0x00000000       0x2b target\libxme_stm32f0xspl_misc.a(misc.c.obj)
 .comment       0x00000000       0x2b target\libxme_stm32f0xspl_misc.a(stm32f10x_exti.c.obj)
 .comment       0x00000000       0x2b target\libxme_stm32f0xspl_gpio.a(stm32f10x_gpio.c.obj)
 .comment       0x00000000       0x2b target\libxme_hal_energy.a(energy_arch.c.obj)
 .comment       0x00000000       0x2b target\libxme_hal_sched.a(sched_arch.c.obj)
 .comment       0x00000000       0x2b target\libxme_hal_sync.a(sync_arch.c.obj)
 .comment       0x00000000       0x2b target\libxme_hal_table.a(table_arch.c.obj)
 .comment       0x00000000       0x2b target\libxme_hal_tls.a(tls_arch.c.obj)
 .comment       0x00000000       0x2b target\libxme_hal_random.a(random_arch.c.obj)
 .comment       0x00000000       0x2b target\libxme_hal_sharedPtr.a(sharedPtr_arch.c.obj)
 .comment       0x00000000       0x2b target\libxme_hal_mem.a(mem_arch.c.obj)

.debug
 *(.debug)

.line
 *(.line)

.debug_srcinfo
 *(.debug_srcinfo)

.debug_sfnames
 *(.debug_sfnames)

.debug_aranges  0x00000000      0xbe8
 *(.debug_aranges)
 .debug_aranges
                0x00000000       0x20 CMakeFiles/firmware.dir/stm32f10x_it.c.obj
 .debug_aranges
                0x00000020       0x20 CMakeFiles/firmware.dir/lwip_test.c.obj
 .debug_aranges
                0x00000040       0x20 CMakeFiles/firmware.dir/udpecho.c.obj
 .debug_aranges
                0x00000060       0x20 CMakeFiles/firmware.dir/dac_spi_cs_mux.c.obj
 .debug_aranges
                0x00000080       0x20 CMakeFiles/firmware.dir/adc_spi_cs_mux.c.obj
 .debug_aranges
                0x000000a0       0x20 CMakeFiles/firmware.dir/belle_II_PS_node_XME_Component.c.obj
 .debug_aranges
                0x000000c0       0x20 CMakeFiles/firmware.dir/help_functions_for_calibration.c.obj
 .debug_aranges
                0x000000e0       0x20 CMakeFiles/firmware.dir/application_logic.c.obj
 .debug_aranges
                0x00000100       0x20 CMakeFiles/firmware.dir/self_tests.c.obj
 .debug_aranges
                0x00000120       0x20 CMakeFiles/firmware.dir/regulator_status_enable_pins.c.obj
 .debug_aranges
                0x00000140       0x20 CMakeFiles/firmware.dir/initialization_functions.c.obj
 .debug_aranges
                0x00000160       0x20 CMakeFiles/firmware.dir/startup.c.obj
 .debug_aranges
                0x00000180       0x20 CMakeFiles/firmware.dir/recalibrate_logic.c.obj
 .debug_aranges
                0x000001a0       0x20 CMakeFiles/firmware.dir/shutdown.c.obj
 .debug_aranges
                0x000001c0       0x20 CMakeFiles/firmware.dir/alive_strobe.c.obj
 .debug_aranges
                0x000001e0       0x20 CMakeFiles/firmware.dir/belle_network_connection_Component.c.obj
 .debug_aranges
                0x00000200       0x20 CMakeFiles/firmware.dir/main.c.obj
 .debug_aranges
                0x00000220       0x28 target\libxme_target_startup.a(startup_stm32f10x_cl.S.obj)
 .debug_aranges
                0x00000248       0x20 target\libxme_target_startup.a(port.c.obj)
 .debug_aranges
                0x00000268       0x20 target\libxme_lwip_core.a(def.c.obj)
 .debug_aranges
                0x00000288       0x20 target\libxme_lwip_core.a(pbuf.c.obj)
 .debug_aranges
                0x000002a8       0x20 target\libxme_lwip_core.a(tcp.c.obj)
 .debug_aranges
                0x000002c8       0x20 target\libxme_lwip_core.a(tcp_out.c.obj)
 .debug_aranges
                0x000002e8       0x20 target\libxme_lwip_core.a(timers.c.obj)
 .debug_aranges
                0x00000308       0x20 target\libxme_lwip_core.a(udp.c.obj)
 .debug_aranges
                0x00000328       0x20 target\libxme_lwip_core.a(sockets.c.obj)
 .debug_aranges
                0x00000348       0x20 target\libxme_lwip_core.a(tcpip.c.obj)
 .debug_aranges
                0x00000368       0x20 target\libxme_lwip_core.a(dhcp.c.obj)
 .debug_aranges
                0x00000388       0x20 target\libxme_lwip_core.a(dns.c.obj)
 .debug_aranges
                0x000003a8       0x20 target\libxme_lwip_core.a(init.c.obj)
 .debug_aranges
                0x000003c8       0x20 target\libxme_lwip_core.a(mem.c.obj)
 .debug_aranges
                0x000003e8       0x20 target\libxme_lwip_core.a(memp.c.obj)
 .debug_aranges
                0x00000408       0x20 target\libxme_lwip_core.a(netif.c.obj)
 .debug_aranges
                0x00000428       0x20 target\libxme_lwip_core.a(tcp_in.c.obj)
 .debug_aranges
                0x00000448       0x20 target\libxme_lwip_core.a(api_lib.c.obj)
 .debug_aranges
                0x00000468       0x20 target\libxme_lwip_core.a(api_msg.c.obj)
 .debug_aranges
                0x00000488       0x20 target\libxme_lwip_core.a(netbuf.c.obj)
 .debug_aranges
                0x000004a8       0x20 target\libxme_lwip_core.a(raw.c.obj)
 .debug_aranges
                0x000004c8       0x20 target\libxme_lwip_core_ipv4.a(icmp.c.obj)
 .debug_aranges
                0x000004e8       0x20 target\libxme_lwip_core_ipv4.a(igmp.c.obj)
 .debug_aranges
                0x00000508       0x20 target\libxme_lwip_core_ipv4.a(inet_chksum.c.obj)
 .debug_aranges
                0x00000528       0x20 target\libxme_lwip_core_ipv4.a(ip.c.obj)
 .debug_aranges
                0x00000548       0x20 target\libxme_lwip_core_ipv4.a(ip_addr.c.obj)
 .debug_aranges
                0x00000568       0x20 target\libxme_lwip_core_ipv4.a(ip_frag.c.obj)
 .debug_aranges
                0x00000588       0x20 target\libxme_lwip_netif_ethernet.a(enet.c.obj)
 .debug_aranges
                0x000005a8       0x20 target\libxme_lwip_netif_ethernet.a(lwiplib.c.obj)
 .debug_aranges
                0x000005c8       0x20 target\libxme_lwip_netif_ethernet.a(ethernetif.c.obj)
 .debug_aranges
                0x000005e8       0x20 target\libxme_lwip_netif_ethernet.a(sys_arch.c.obj)
 .debug_aranges
                0x00000608       0x20 target\libxme_lwip_netif_ethernet.a(stm32_eth.c.obj)
 .debug_aranges
                0x00000628       0x20 target\libxme_freertos_kernel.a(queue.c.obj)
 .debug_aranges
                0x00000648       0x20 target\libxme_freertos_kernel.a(tasks.c.obj)
 .debug_aranges
                0x00000668       0x20 target\libxme_freertos_kernel.a(list.c.obj)
 .debug_aranges
                0x00000688       0x20 target\libxme_freertos_memmang.a(heap_2.c.obj)
 .debug_aranges
                0x000006a8       0x20 target\libxme_target_bsp.a(enet_arch.c.obj)
 .debug_aranges
                0x000006c8       0x20 target\libxme_target_bsp.a(system_stm32f10x.c.obj)
 .debug_aranges
                0x000006e8       0x20 target\libxme_hal_dio.a(dio_arch.c.obj)
 .debug_aranges
                0x00000708       0x20 target\libbelle_drivers.a(mux.c.obj)
 .debug_aranges
                0x00000728       0x20 target\libbelle_drivers.a(gpio_config.c.obj)
 .debug_aranges
                0x00000748       0x20 target\libbelle_drivers.a(spi.c.obj)
 .debug_aranges
                0x00000768       0x20 target\libbelle_drivers.a(adc_ad7322.c.obj)
 .debug_aranges
                0x00000788       0x20 target\libbelle_drivers.a(dac_ad5392.c.obj)
 .debug_aranges
                0x000007a8       0x20 target\libbelle_drivers.a(adc_intern_stm32f107.c.obj)
 .debug_aranges
                0x000007c8       0x20 target\libbelle_drivers.a(i2c.c.obj)
 .debug_aranges
                0x000007e8       0x20 target\libbelle_drivers.a(eeprom.c.obj)
 .debug_aranges
                0x00000808       0x20 target\libxme_stm32f0xspl_spi.a(stm32f10x_spi.c.obj)
 .debug_aranges
                0x00000828       0x20 target\libxme_stm32f0xspl_i2c.a(stm32f10x_i2c.c.obj)
 .debug_aranges
                0x00000848       0x20 target\libxme_stm32f0xspl_adc.a(stm32f10x_adc.c.obj)
 .debug_aranges
                0x00000868       0x20 target\libxme_core_core.a(core.c.obj)
 .debug_aranges
                0x00000888       0x20 target\libxme_core_core.a(dcc.c.obj)
 .debug_aranges
                0x000008a8       0x20 target\libxme_core_core.a(directory.c.obj)
 .debug_aranges
                0x000008c8       0x20 target\libxme_core_core.a(interfaceManager.c.obj)
 .debug_aranges
                0x000008e8       0x20 target\libxme_core_core.a(md.c.obj)
 .debug_aranges
                0x00000908       0x20 target\libxme_core_core.a(nodeManager.c.obj)
 .debug_aranges
                0x00000928       0x20 target\libxme_core_core.a(net_plugin.c.obj)
 .debug_aranges
                0x00000948       0x20 target\libxme_core_core.a(net_plugin_tcp.c.obj)
 .debug_aranges
                0x00000968       0x20 target\libxme_core_core.a(packet.c.obj)
 .debug_aranges
                0x00000988       0x20 target\libxme_core_core.a(resourceManager.c.obj)
 .debug_aranges
                0x000009a8       0x20 target\libxme_core_core.a(routingTable.c.obj)
 .debug_aranges
                0x000009c8       0x20 target\libxme_core_core.a(rr.c.obj)
 .debug_aranges
                0x000009e8       0x20 target\libxme_core_core.a(broker.c.obj)
 .debug_aranges
                0x00000a08       0x20 target\libxme_hal_net.a(net_arch.c.obj)
 .debug_aranges
                0x00000a28       0x20 target\libxme_lwip_netif_arp.a(etharp.c.obj)
 .debug_aranges
                0x00000a48       0x20 target\libxme_lwip_core.a(netdb.c.obj)
 .debug_aranges
                0x00000a68       0x20 target\libxme_stm32f0xspl_rcc.a(stm32f10x_rcc.c.obj)
 .debug_aranges
                0x00000a88       0x20 target\libxme_stm32f0xspl_misc.a(misc.c.obj)
 .debug_aranges
                0x00000aa8       0x20 target\libxme_stm32f0xspl_misc.a(stm32f10x_exti.c.obj)
 .debug_aranges
                0x00000ac8       0x20 target\libxme_stm32f0xspl_gpio.a(stm32f10x_gpio.c.obj)
 .debug_aranges
                0x00000ae8       0x20 target\libxme_hal_energy.a(energy_arch.c.obj)
 .debug_aranges
                0x00000b08       0x20 target\libxme_hal_sched.a(sched_arch.c.obj)
 .debug_aranges
                0x00000b28       0x20 target\libxme_hal_sync.a(sync_arch.c.obj)
 .debug_aranges
                0x00000b48       0x20 target\libxme_hal_table.a(table_arch.c.obj)
 .debug_aranges
                0x00000b68       0x20 target\libxme_hal_tls.a(tls_arch.c.obj)
 .debug_aranges
                0x00000b88       0x20 target\libxme_hal_random.a(random_arch.c.obj)
 .debug_aranges
                0x00000ba8       0x20 target\libxme_hal_sharedPtr.a(sharedPtr_arch.c.obj)
 .debug_aranges
                0x00000bc8       0x20 target\libxme_hal_mem.a(mem_arch.c.obj)

.debug_pubnames
                0x00000000     0xa475
 *(.debug_pubnames)
 .debug_pubnames
                0x00000000       0xd2 CMakeFiles/firmware.dir/stm32f10x_it.c.obj
 .debug_pubnames
                0x000000d2       0x5a CMakeFiles/firmware.dir/lwip_test.c.obj
 .debug_pubnames
                0x0000012c       0x57 CMakeFiles/firmware.dir/udpecho.c.obj
 .debug_pubnames
                0x00000183      0x10b CMakeFiles/firmware.dir/dac_spi_cs_mux.c.obj
 .debug_pubnames
                0x0000028e      0x3de CMakeFiles/firmware.dir/adc_spi_cs_mux.c.obj
 .debug_pubnames
                0x0000066c      0x5c7 CMakeFiles/firmware.dir/belle_II_PS_node_XME_Component.c.obj
 .debug_pubnames
                0x00000c33       0xbf CMakeFiles/firmware.dir/help_functions_for_calibration.c.obj
 .debug_pubnames
                0x00000cf2      0x5f9 CMakeFiles/firmware.dir/application_logic.c.obj
 .debug_pubnames
                0x000012eb      0x3a6 CMakeFiles/firmware.dir/self_tests.c.obj
 .debug_pubnames
                0x00001691      0x44f CMakeFiles/firmware.dir/regulator_status_enable_pins.c.obj
 .debug_pubnames
                0x00001ae0      0x374 CMakeFiles/firmware.dir/initialization_functions.c.obj
 .debug_pubnames
                0x00001e54      0x49b CMakeFiles/firmware.dir/startup.c.obj
 .debug_pubnames
                0x000022ef      0x42e CMakeFiles/firmware.dir/recalibrate_logic.c.obj
 .debug_pubnames
                0x0000271d      0x41d CMakeFiles/firmware.dir/shutdown.c.obj
 .debug_pubnames
                0x00002b3a       0x3d CMakeFiles/firmware.dir/alive_strobe.c.obj
 .debug_pubnames
                0x00002b77      0x538 CMakeFiles/firmware.dir/belle_network_connection_Component.c.obj
 .debug_pubnames
                0x000030af      0x497 CMakeFiles/firmware.dir/main.c.obj
 .debug_pubnames
                0x00003546      0x101 target\libxme_target_startup.a(port.c.obj)
 .debug_pubnames
                0x00003647       0x4e target\libxme_lwip_core.a(def.c.obj)
 .debug_pubnames
                0x00003695      0x139 target\libxme_lwip_core.a(pbuf.c.obj)
 .debug_pubnames
                0x000037ce      0x2fa target\libxme_lwip_core.a(tcp.c.obj)
 .debug_pubnames
                0x00003ac8       0xdb target\libxme_lwip_core.a(tcp_out.c.obj)
 .debug_pubnames
                0x00003ba3       0x7b target\libxme_lwip_core.a(timers.c.obj)
 .debug_pubnames
                0x00003c1e       0xc0 target\libxme_lwip_core.a(udp.c.obj)
 .debug_pubnames
                0x00003cde      0x172 target\libxme_lwip_core.a(sockets.c.obj)
 .debug_pubnames
                0x00003e50      0x100 target\libxme_lwip_core.a(tcpip.c.obj)
 .debug_pubnames
                0x00003f50      0x125 target\libxme_lwip_core.a(dhcp.c.obj)
 .debug_pubnames
                0x00004075       0x65 target\libxme_lwip_core.a(dns.c.obj)
 .debug_pubnames
                0x000040da       0x20 target\libxme_lwip_core.a(init.c.obj)
 .debug_pubnames
                0x000040fa       0x64 target\libxme_lwip_core.a(mem.c.obj)
 .debug_pubnames
                0x0000415e       0x3e target\libxme_lwip_core.a(memp.c.obj)
 .debug_pubnames
                0x0000419c      0x161 target\libxme_lwip_core.a(netif.c.obj)
 .debug_pubnames
                0x000042fd       0x32 target\libxme_lwip_core.a(tcp_in.c.obj)
 .debug_pubnames
                0x0000432f      0x1a9 target\libxme_lwip_core.a(api_lib.c.obj)
 .debug_pubnames
                0x000044d8       0xfc target\libxme_lwip_core.a(api_msg.c.obj)
 .debug_pubnames
                0x000045d4       0xa5 target\libxme_lwip_core.a(netbuf.c.obj)
 .debug_pubnames
                0x00004679       0x81 target\libxme_lwip_core.a(raw.c.obj)
 .debug_pubnames
                0x000046fa       0x4e target\libxme_lwip_core_ipv4.a(icmp.c.obj)
 .debug_pubnames
                0x00004748       0xae target\libxme_lwip_core_ipv4.a(igmp.c.obj)
 .debug_pubnames
                0x000047f6       0x6d target\libxme_lwip_core_ipv4.a(inet_chksum.c.obj)
 .debug_pubnames
                0x00004863       0xb2 target\libxme_lwip_core_ipv4.a(ip.c.obj)
 .debug_pubnames
                0x00004915       0xae target\libxme_lwip_core_ipv4.a(ip_addr.c.obj)
 .debug_pubnames
                0x000049c3       0x3c target\libxme_lwip_core_ipv4.a(ip_frag.c.obj)
 .debug_pubnames
                0x000049ff       0x45 target\libxme_lwip_netif_ethernet.a(enet.c.obj)
 .debug_pubnames
                0x00004a44       0x9a target\libxme_lwip_netif_ethernet.a(lwiplib.c.obj)
 .debug_pubnames
                0x00004ade      0x129 target\libxme_lwip_netif_ethernet.a(ethernetif.c.obj)
 .debug_pubnames
                0x00004c07      0x19d target\libxme_lwip_netif_ethernet.a(sys_arch.c.obj)
 .debug_pubnames
                0x00004da4      0xb7f target\libxme_lwip_netif_ethernet.a(stm32_eth.c.obj)
 .debug_pubnames
                0x00005923      0x12e target\libxme_freertos_kernel.a(queue.c.obj)
 .debug_pubnames
                0x00005a51      0x2ab target\libxme_freertos_kernel.a(tasks.c.obj)
 .debug_pubnames
                0x00005cfc       0x71 target\libxme_freertos_kernel.a(list.c.obj)
 .debug_pubnames
                0x00005d6d       0x64 target\libxme_freertos_memmang.a(heap_2.c.obj)
 .debug_pubnames
                0x00005dd1       0xbd target\libxme_target_bsp.a(enet_arch.c.obj)
 .debug_pubnames
                0x00005e8e       0x61 target\libxme_target_bsp.a(system_stm32f10x.c.obj)
 .debug_pubnames
                0x00005eef       0x96 target\libxme_hal_dio.a(dio_arch.c.obj)
 .debug_pubnames
                0x00005f85       0x71 target\libbelle_drivers.a(mux.c.obj)
 .debug_pubnames
                0x00005ff6       0x74 target\libbelle_drivers.a(mux_inst.c.obj)
 .debug_pubnames
                0x0000606a       0x2a target\libbelle_drivers.a(gpio_config.c.obj)
 .debug_pubnames
                0x00006094       0x9c target\libbelle_drivers.a(spi.c.obj)
 .debug_pubnames
                0x00006130       0x2a target\libbelle_drivers.a(spi_inst.c.obj)
 .debug_pubnames
                0x0000615a       0xfd target\libbelle_drivers.a(adc_ad7322.c.obj)
 .debug_pubnames
                0x00006257       0x2d target\libbelle_drivers.a(adc_ad7322_inst.c.obj)
 .debug_pubnames
                0x00006284      0x26a target\libbelle_drivers.a(dac_ad5392.c.obj)
 .debug_pubnames
                0x000064ee       0x3d target\libbelle_drivers.a(dac_ad5392_inst.c.obj)
 .debug_pubnames
                0x0000652b       0x89 target\libbelle_drivers.a(adc_intern_stm32f107.c.obj)
 .debug_pubnames
                0x000065b4       0x26 target\libbelle_drivers.a(adc_intern_stm32f107_inst.c.obj)
 .debug_pubnames
                0x000065da       0x1f target\libbelle_drivers.a(i2c.c.obj)
 .debug_pubnames
                0x000065f9       0x21 target\libbelle_drivers.a(i2c_inst.c.obj)
 .debug_pubnames
                0x0000661a      0x1df target\libbelle_drivers.a(eeprom.c.obj)
 .debug_pubnames
                0x000067f9       0x7c target\libbelle_drivers.a(eeprom_inst.c.obj)
 .debug_pubnames
                0x00006875      0x1f6 target\libxme_stm32f0xspl_spi.a(stm32f10x_spi.c.obj)
 .debug_pubnames
                0x00006a6b      0x2cb target\libxme_stm32f0xspl_i2c.a(stm32f10x_i2c.c.obj)
 .debug_pubnames
                0x00006d36      0x401 target\libxme_stm32f0xspl_adc.a(stm32f10x_adc.c.obj)
 .debug_pubnames
                0x00007137       0x9c target\libxme_core_core.a(core.c.obj)
 .debug_pubnames
                0x000071d3      0x28e target\libxme_core_core.a(dcc.c.obj)
 .debug_pubnames
                0x00007461      0x210 target\libxme_core_core.a(directory.c.obj)
 .debug_pubnames
                0x00007671      0x3f8 target\libxme_core_core.a(interfaceManager.c.obj)
 .debug_pubnames
                0x00007a69      0x24b target\libxme_core_core.a(md.c.obj)
 .debug_pubnames
                0x00007cb4      0x17f target\libxme_core_core.a(nodeManager.c.obj)
 .debug_pubnames
                0x00007e33      0x3b7 target\libxme_core_core.a(net_plugin.c.obj)
 .debug_pubnames
                0x000081ea      0x543 target\libxme_core_core.a(net_plugin_tcp.c.obj)
 .debug_pubnames
                0x0000872d      0x146 target\libxme_core_core.a(packet.c.obj)
 .debug_pubnames
                0x00008873      0x52c target\libxme_core_core.a(resourceManager.c.obj)
 .debug_pubnames
                0x00008d9f      0x297 target\libxme_core_core.a(routingTable.c.obj)
 .debug_pubnames
                0x00009036      0x21c target\libxme_core_core.a(rr.c.obj)
 .debug_pubnames
                0x00009252      0x170 target\libxme_core_core.a(broker.c.obj)
 .debug_pubnames
                0x000093c2      0x2c8 target\libxme_hal_net.a(net_arch.c.obj)
 .debug_pubnames
                0x0000968a       0xb5 target\libxme_lwip_netif_arp.a(etharp.c.obj)
 .debug_pubnames
                0x0000973f       0x79 target\libxme_lwip_core.a(netdb.c.obj)
 .debug_pubnames
                0x000097b8      0x37e target\libxme_stm32f0xspl_rcc.a(stm32f10x_rcc.c.obj)
 .debug_pubnames
                0x00009b36       0x89 target\libxme_stm32f0xspl_misc.a(misc.c.obj)
 .debug_pubnames
                0x00009bbf       0xbb target\libxme_stm32f0xspl_misc.a(stm32f10x_exti.c.obj)
 .debug_pubnames
                0x00009c7a      0x19d target\libxme_stm32f0xspl_gpio.a(stm32f10x_gpio.c.obj)
 .debug_pubnames
                0x00009e17       0x2b target\libxme_hal_energy.a(energy_arch.c.obj)
 .debug_pubnames
                0x00009e42       0xda target\libxme_hal_sched.a(sched_arch.c.obj)
 .debug_pubnames
                0x00009f1c      0x11f target\libxme_hal_sync.a(sync_arch.c.obj)
 .debug_pubnames
                0x0000a03b       0x66 target\libxme_hal_table.a(table_arch.c.obj)
 .debug_pubnames
                0x0000a0a1       0xd8 target\libxme_hal_tls.a(tls_arch.c.obj)
 .debug_pubnames
                0x0000a179       0xda target\libxme_hal_random.a(random_arch.c.obj)
 .debug_pubnames
                0x0000a253      0x187 target\libxme_hal_sharedPtr.a(sharedPtr_arch.c.obj)
 .debug_pubnames
                0x0000a3da       0x9b target\libxme_hal_mem.a(mem_arch.c.obj)

.debug_info     0x00000000    0x4318b
 *(.debug_info .gnu.linkonce.wi.*)
 .debug_info    0x00000000      0x1c5 CMakeFiles/firmware.dir/stm32f10x_it.c.obj
 .debug_info    0x000001c5      0x473 CMakeFiles/firmware.dir/lwip_test.c.obj
 .debug_info    0x00000638      0x7cc CMakeFiles/firmware.dir/udpecho.c.obj
 .debug_info    0x00000e04      0xbb5 CMakeFiles/firmware.dir/dac_spi_cs_mux.c.obj
 .debug_info    0x000019b9     0x1111 CMakeFiles/firmware.dir/adc_spi_cs_mux.c.obj
 .debug_info    0x00002aca     0x1777 CMakeFiles/firmware.dir/belle_II_PS_node_XME_Component.c.obj
 .debug_info    0x00004241      0xc07 CMakeFiles/firmware.dir/help_functions_for_calibration.c.obj
 .debug_info    0x00004e48     0x1752 CMakeFiles/firmware.dir/application_logic.c.obj
 .debug_info    0x0000659a      0xfc2 CMakeFiles/firmware.dir/self_tests.c.obj
 .debug_info    0x0000755c      0xece CMakeFiles/firmware.dir/regulator_status_enable_pins.c.obj
 .debug_info    0x0000842a     0x12ac CMakeFiles/firmware.dir/initialization_functions.c.obj
 .debug_info    0x000096d6     0x12e7 CMakeFiles/firmware.dir/startup.c.obj
 .debug_info    0x0000a9bd     0x1167 CMakeFiles/firmware.dir/recalibrate_logic.c.obj
 .debug_info    0x0000bb24      0xfcd CMakeFiles/firmware.dir/shutdown.c.obj
 .debug_info    0x0000caf1      0x23f CMakeFiles/firmware.dir/alive_strobe.c.obj
 .debug_info    0x0000cd30     0x14dd CMakeFiles/firmware.dir/belle_network_connection_Component.c.obj
 .debug_info    0x0000e20d     0x1bd3 CMakeFiles/firmware.dir/main.c.obj
 .debug_info    0x0000fde0       0xe1 target\libxme_target_startup.a(startup_stm32f10x_cl.S.obj)
 .debug_info    0x0000fec1      0x1d8 target\libxme_target_startup.a(port.c.obj)
 .debug_info    0x00010099      0x111 target\libxme_lwip_core.a(def.c.obj)
 .debug_info    0x000101aa      0xf1a target\libxme_lwip_core.a(pbuf.c.obj)
 .debug_info    0x000110c4     0x165d target\libxme_lwip_core.a(tcp.c.obj)
 .debug_info    0x00012721     0x118b target\libxme_lwip_core.a(tcp_out.c.obj)
 .debug_info    0x000138ac      0xa67 target\libxme_lwip_core.a(timers.c.obj)
 .debug_info    0x00014313      0xcea target\libxme_lwip_core.a(udp.c.obj)
 .debug_info    0x00014ffd     0x1f96 target\libxme_lwip_core.a(sockets.c.obj)
 .debug_info    0x00016f93      0xd73 target\libxme_lwip_core.a(tcpip.c.obj)
 .debug_info    0x00017d06     0x1343 target\libxme_lwip_core.a(dhcp.c.obj)
 .debug_info    0x00019049      0x99a target\libxme_lwip_core.a(dns.c.obj)
 .debug_info    0x000199e3       0x7b target\libxme_lwip_core.a(init.c.obj)
 .debug_info    0x00019a5e      0x3fe target\libxme_lwip_core.a(mem.c.obj)
 .debug_info    0x00019e5c      0x2ad target\libxme_lwip_core.a(memp.c.obj)
 .debug_info    0x0001a109     0x10f3 target\libxme_lwip_core.a(netif.c.obj)
 .debug_info    0x0001b1fc      0xf4c target\libxme_lwip_core.a(tcp_in.c.obj)
 .debug_info    0x0001c148     0x15d9 target\libxme_lwip_core.a(api_lib.c.obj)
 .debug_info    0x0001d721     0x189a target\libxme_lwip_core.a(api_msg.c.obj)
 .debug_info    0x0001efbb      0x43c target\libxme_lwip_core.a(netbuf.c.obj)
 .debug_info    0x0001f3f7      0x830 target\libxme_lwip_core.a(raw.c.obj)
 .debug_info    0x0001fc27      0x6e3 target\libxme_lwip_core_ipv4.a(icmp.c.obj)
 .debug_info    0x0002030a      0xad7 target\libxme_lwip_core_ipv4.a(igmp.c.obj)
 .debug_info    0x00020de1      0x3bb target\libxme_lwip_core_ipv4.a(inet_chksum.c.obj)
 .debug_info    0x0002119c      0xb71 target\libxme_lwip_core_ipv4.a(ip.c.obj)
 .debug_info    0x00021d0d      0x602 target\libxme_lwip_core_ipv4.a(ip_addr.c.obj)
 .debug_info    0x0002230f      0xa12 target\libxme_lwip_core_ipv4.a(ip_frag.c.obj)
 .debug_info    0x00022d21      0x11f target\libxme_lwip_netif_ethernet.a(enet.c.obj)
 .debug_info    0x00022e40      0xd0a target\libxme_lwip_netif_ethernet.a(lwiplib.c.obj)
 .debug_info    0x00023b4a      0xf82 target\libxme_lwip_netif_ethernet.a(ethernetif.c.obj)
 .debug_info    0x00024acc      0x632 target\libxme_lwip_netif_ethernet.a(sys_arch.c.obj)
 .debug_info    0x000250fe     0x1e31 target\libxme_lwip_netif_ethernet.a(stm32_eth.c.obj)
 .debug_info    0x00026f2f      0x77f target\libxme_freertos_kernel.a(queue.c.obj)
 .debug_info    0x000276ae      0xe1e target\libxme_freertos_kernel.a(tasks.c.obj)
 .debug_info    0x000284cc      0x2a6 target\libxme_freertos_kernel.a(list.c.obj)
 .debug_info    0x00028772      0x2b3 target\libxme_freertos_memmang.a(heap_2.c.obj)
 .debug_info    0x00028a25      0x880 target\libxme_target_bsp.a(enet_arch.c.obj)
 .debug_info    0x000292a5      0x4fa target\libxme_target_bsp.a(system_stm32f10x.c.obj)
 .debug_info    0x0002979f      0x3a5 target\libxme_hal_dio.a(dio_arch.c.obj)
 .debug_info    0x00029b44      0x4c5 target\libbelle_drivers.a(mux.c.obj)
 .debug_info    0x0002a009      0x2c0 target\libbelle_drivers.a(mux_inst.c.obj)
 .debug_info    0x0002a2c9      0x24c target\libbelle_drivers.a(gpio_config.c.obj)
 .debug_info    0x0002a515      0x800 target\libbelle_drivers.a(spi.c.obj)
 .debug_info    0x0002ad15      0x3b9 target\libbelle_drivers.a(spi_inst.c.obj)
 .debug_info    0x0002b0ce      0x84e target\libbelle_drivers.a(adc_ad7322.c.obj)
 .debug_info    0x0002b91c      0x3fb target\libbelle_drivers.a(adc_ad7322_inst.c.obj)
 .debug_info    0x0002bd17      0xd40 target\libbelle_drivers.a(dac_ad5392.c.obj)
 .debug_info    0x0002ca57      0x4dd target\libbelle_drivers.a(dac_ad5392_inst.c.obj)
 .debug_info    0x0002cf34      0x56c target\libbelle_drivers.a(adc_intern_stm32f107.c.obj)
 .debug_info    0x0002d4a0       0xab target\libbelle_drivers.a(adc_intern_stm32f107_inst.c.obj)
 .debug_info    0x0002d54b      0x4c9 target\libbelle_drivers.a(i2c.c.obj)
 .debug_info    0x0002da14      0x346 target\libbelle_drivers.a(i2c_inst.c.obj)
 .debug_info    0x0002dd5a      0x8e7 target\libbelle_drivers.a(eeprom.c.obj)
 .debug_info    0x0002e641      0x444 target\libbelle_drivers.a(eeprom_inst.c.obj)
 .debug_info    0x0002ea85      0xa3f target\libxme_stm32f0xspl_spi.a(stm32f10x_spi.c.obj)
 .debug_info    0x0002f4c4      0xb94 target\libxme_stm32f0xspl_i2c.a(stm32f10x_i2c.c.obj)
 .debug_info    0x00030058      0xc0e target\libxme_stm32f0xspl_adc.a(stm32f10x_adc.c.obj)
 .debug_info    0x00030c66      0x231 target\libxme_core_core.a(core.c.obj)
 .debug_info    0x00030e97     0x145e target\libxme_core_core.a(dcc.c.obj)
 .debug_info    0x000322f5     0x2714 target\libxme_core_core.a(directory.c.obj)
 .debug_info    0x00034a09      0xe97 target\libxme_core_core.a(interfaceManager.c.obj)
 .debug_info    0x000358a0      0x9ae target\libxme_core_core.a(md.c.obj)
 .debug_info    0x0003624e      0x86e target\libxme_core_core.a(nodeManager.c.obj)
 .debug_info    0x00036abc      0x9c7 target\libxme_core_core.a(net_plugin.c.obj)
 .debug_info    0x00037483     0x15aa target\libxme_core_core.a(net_plugin_tcp.c.obj)
 .debug_info    0x00038a2d      0x388 target\libxme_core_core.a(packet.c.obj)
 .debug_info    0x00038db5     0x17d8 target\libxme_core_core.a(resourceManager.c.obj)
 .debug_info    0x0003a58d      0xc02 target\libxme_core_core.a(routingTable.c.obj)
 .debug_info    0x0003b18f     0x15f9 target\libxme_core_core.a(rr.c.obj)
 .debug_info    0x0003c788      0xaba target\libxme_core_core.a(broker.c.obj)
 .debug_info    0x0003d242     0x11a9 target\libxme_hal_net.a(net_arch.c.obj)
 .debug_info    0x0003e3eb     0x117a target\libxme_lwip_netif_arp.a(etharp.c.obj)
 .debug_info    0x0003f565      0x603 target\libxme_lwip_core.a(netdb.c.obj)
 .debug_info    0x0003fb68      0xb2f target\libxme_stm32f0xspl_rcc.a(stm32f10x_rcc.c.obj)
 .debug_info    0x00040697      0x546 target\libxme_stm32f0xspl_misc.a(misc.c.obj)
 .debug_info    0x00040bdd      0x361 target\libxme_stm32f0xspl_misc.a(stm32f10x_exti.c.obj)
 .debug_info    0x00040f3e      0x723 target\libxme_stm32f0xspl_gpio.a(stm32f10x_gpio.c.obj)
 .debug_info    0x00041661       0x3a target\libxme_hal_energy.a(energy_arch.c.obj)
 .debug_info    0x0004169b      0x69e target\libxme_hal_sched.a(sched_arch.c.obj)
 .debug_info    0x00041d39      0x4c7 target\libxme_hal_sync.a(sync_arch.c.obj)
 .debug_info    0x00042200      0x30f target\libxme_hal_table.a(table_arch.c.obj)
 .debug_info    0x0004250f      0x2eb target\libxme_hal_tls.a(tls_arch.c.obj)
 .debug_info    0x000427fa      0x26c target\libxme_hal_random.a(random_arch.c.obj)
 .debug_info    0x00042a66      0x458 target\libxme_hal_sharedPtr.a(sharedPtr_arch.c.obj)
 .debug_info    0x00042ebe      0x2cd target\libxme_hal_mem.a(mem_arch.c.obj)

.debug_abbrev   0x00000000     0x97b7
 *(.debug_abbrev)
 .debug_abbrev  0x00000000       0xb9 CMakeFiles/firmware.dir/stm32f10x_it.c.obj
 .debug_abbrev  0x000000b9      0x18b CMakeFiles/firmware.dir/lwip_test.c.obj
 .debug_abbrev  0x00000244      0x1c4 CMakeFiles/firmware.dir/udpecho.c.obj
 .debug_abbrev  0x00000408      0x15f CMakeFiles/firmware.dir/dac_spi_cs_mux.c.obj
 .debug_abbrev  0x00000567      0x190 CMakeFiles/firmware.dir/adc_spi_cs_mux.c.obj
 .debug_abbrev  0x000006f7      0x21e CMakeFiles/firmware.dir/belle_II_PS_node_XME_Component.c.obj
 .debug_abbrev  0x00000915      0x14c CMakeFiles/firmware.dir/help_functions_for_calibration.c.obj
 .debug_abbrev  0x00000a61      0x295 CMakeFiles/firmware.dir/application_logic.c.obj
 .debug_abbrev  0x00000cf6      0x185 CMakeFiles/firmware.dir/self_tests.c.obj
 .debug_abbrev  0x00000e7b      0x189 CMakeFiles/firmware.dir/regulator_status_enable_pins.c.obj
 .debug_abbrev  0x00001004      0x150 CMakeFiles/firmware.dir/initialization_functions.c.obj
 .debug_abbrev  0x00001154      0x1eb CMakeFiles/firmware.dir/startup.c.obj
 .debug_abbrev  0x0000133f      0x165 CMakeFiles/firmware.dir/recalibrate_logic.c.obj
 .debug_abbrev  0x000014a4      0x179 CMakeFiles/firmware.dir/shutdown.c.obj
 .debug_abbrev  0x0000161d      0x142 CMakeFiles/firmware.dir/alive_strobe.c.obj
 .debug_abbrev  0x0000175f      0x1fd CMakeFiles/firmware.dir/belle_network_connection_Component.c.obj
 .debug_abbrev  0x0000195c      0x1ca CMakeFiles/firmware.dir/main.c.obj
 .debug_abbrev  0x00001b26       0x12 target\libxme_target_startup.a(startup_stm32f10x_cl.S.obj)
 .debug_abbrev  0x00001b38      0x120 target\libxme_target_startup.a(port.c.obj)
 .debug_abbrev  0x00001c58       0x76 target\libxme_lwip_core.a(def.c.obj)
 .debug_abbrev  0x00001cce      0x206 target\libxme_lwip_core.a(pbuf.c.obj)
 .debug_abbrev  0x00001ed4      0x291 target\libxme_lwip_core.a(tcp.c.obj)
 .debug_abbrev  0x00002165      0x23c target\libxme_lwip_core.a(tcp_out.c.obj)
 .debug_abbrev  0x000023a1      0x1a7 target\libxme_lwip_core.a(timers.c.obj)
 .debug_abbrev  0x00002548      0x1f6 target\libxme_lwip_core.a(udp.c.obj)
 .debug_abbrev  0x0000273e      0x231 target\libxme_lwip_core.a(sockets.c.obj)
 .debug_abbrev  0x0000296f      0x1e4 target\libxme_lwip_core.a(tcpip.c.obj)
 .debug_abbrev  0x00002b53      0x200 target\libxme_lwip_core.a(dhcp.c.obj)
 .debug_abbrev  0x00002d53      0x1bc target\libxme_lwip_core.a(dns.c.obj)
 .debug_abbrev  0x00002f0f       0x3f target\libxme_lwip_core.a(init.c.obj)
 .debug_abbrev  0x00002f4e      0x159 target\libxme_lwip_core.a(mem.c.obj)
 .debug_abbrev  0x000030a7      0x118 target\libxme_lwip_core.a(memp.c.obj)
 .debug_abbrev  0x000031bf      0x232 target\libxme_lwip_core.a(netif.c.obj)
 .debug_abbrev  0x000033f1      0x218 target\libxme_lwip_core.a(tcp_in.c.obj)
 .debug_abbrev  0x00003609      0x202 target\libxme_lwip_core.a(api_lib.c.obj)
 .debug_abbrev  0x0000380b      0x238 target\libxme_lwip_core.a(api_msg.c.obj)
 .debug_abbrev  0x00003a43      0x101 target\libxme_lwip_core.a(netbuf.c.obj)
 .debug_abbrev  0x00003b44      0x1a9 target\libxme_lwip_core.a(raw.c.obj)
 .debug_abbrev  0x00003ced      0x1b6 target\libxme_lwip_core_ipv4.a(icmp.c.obj)
 .debug_abbrev  0x00003ea3      0x1c5 target\libxme_lwip_core_ipv4.a(igmp.c.obj)
 .debug_abbrev  0x00004068      0x124 target\libxme_lwip_core_ipv4.a(inet_chksum.c.obj)
 .debug_abbrev  0x0000418c      0x182 target\libxme_lwip_core_ipv4.a(ip.c.obj)
 .debug_abbrev  0x0000430e      0x16c target\libxme_lwip_core_ipv4.a(ip_addr.c.obj)
 .debug_abbrev  0x0000447a      0x1d9 target\libxme_lwip_core_ipv4.a(ip_frag.c.obj)
 .debug_abbrev  0x00004653       0xc9 target\libxme_lwip_netif_ethernet.a(enet.c.obj)
 .debug_abbrev  0x0000471c      0x184 target\libxme_lwip_netif_ethernet.a(lwiplib.c.obj)
 .debug_abbrev  0x000048a0      0x2cc target\libxme_lwip_netif_ethernet.a(ethernetif.c.obj)
 .debug_abbrev  0x00004b6c      0x160 target\libxme_lwip_netif_ethernet.a(sys_arch.c.obj)
 .debug_abbrev  0x00004ccc      0x1ff target\libxme_lwip_netif_ethernet.a(stm32_eth.c.obj)
 .debug_abbrev  0x00004ecb      0x109 target\libxme_freertos_kernel.a(queue.c.obj)
 .debug_abbrev  0x00004fd4      0x182 target\libxme_freertos_kernel.a(tasks.c.obj)
 .debug_abbrev  0x00005156       0xb6 target\libxme_freertos_kernel.a(list.c.obj)
 .debug_abbrev  0x0000520c      0x15c target\libxme_freertos_memmang.a(heap_2.c.obj)
 .debug_abbrev  0x00005368      0x17b target\libxme_target_bsp.a(enet_arch.c.obj)
 .debug_abbrev  0x000054e3      0x17e target\libxme_target_bsp.a(system_stm32f10x.c.obj)
 .debug_abbrev  0x00005661      0x12c target\libxme_hal_dio.a(dio_arch.c.obj)
 .debug_abbrev  0x0000578d      0x13f target\libbelle_drivers.a(mux.c.obj)
 .debug_abbrev  0x000058cc       0xe2 target\libbelle_drivers.a(mux_inst.c.obj)
 .debug_abbrev  0x000059ae      0x113 target\libbelle_drivers.a(gpio_config.c.obj)
 .debug_abbrev  0x00005ac1      0x16b target\libbelle_drivers.a(spi.c.obj)
 .debug_abbrev  0x00005c2c       0xe9 target\libbelle_drivers.a(spi_inst.c.obj)
 .debug_abbrev  0x00005d15      0x197 target\libbelle_drivers.a(adc_ad7322.c.obj)
 .debug_abbrev  0x00005eac       0xfa target\libbelle_drivers.a(adc_ad7322_inst.c.obj)
 .debug_abbrev  0x00005fa6      0x1d3 target\libbelle_drivers.a(dac_ad5392.c.obj)
 .debug_abbrev  0x00006179      0x10c target\libbelle_drivers.a(dac_ad5392_inst.c.obj)
 .debug_abbrev  0x00006285      0x120 target\libbelle_drivers.a(adc_intern_stm32f107.c.obj)
 .debug_abbrev  0x000063a5       0x64 target\libbelle_drivers.a(adc_intern_stm32f107_inst.c.obj)
 .debug_abbrev  0x00006409      0x115 target\libbelle_drivers.a(i2c.c.obj)
 .debug_abbrev  0x0000651e       0xe2 target\libbelle_drivers.a(i2c_inst.c.obj)
 .debug_abbrev  0x00006600      0x1ef target\libbelle_drivers.a(eeprom.c.obj)
 .debug_abbrev  0x000067ef      0x105 target\libbelle_drivers.a(eeprom_inst.c.obj)
 .debug_abbrev  0x000068f4      0x15d target\libxme_stm32f0xspl_spi.a(stm32f10x_spi.c.obj)
 .debug_abbrev  0x00006a51      0x15d target\libxme_stm32f0xspl_i2c.a(stm32f10x_i2c.c.obj)
 .debug_abbrev  0x00006bae      0x174 target\libxme_stm32f0xspl_adc.a(stm32f10x_adc.c.obj)
 .debug_abbrev  0x00006d22       0xd1 target\libxme_core_core.a(core.c.obj)
 .debug_abbrev  0x00006df3      0x1fc target\libxme_core_core.a(dcc.c.obj)
 .debug_abbrev  0x00006fef      0x229 target\libxme_core_core.a(directory.c.obj)
 .debug_abbrev  0x00007218      0x1f9 target\libxme_core_core.a(interfaceManager.c.obj)
 .debug_abbrev  0x00007411      0x1de target\libxme_core_core.a(md.c.obj)
 .debug_abbrev  0x000075ef      0x170 target\libxme_core_core.a(nodeManager.c.obj)
 .debug_abbrev  0x0000775f      0x1db target\libxme_core_core.a(net_plugin.c.obj)
 .debug_abbrev  0x0000793a      0x1fe target\libxme_core_core.a(net_plugin_tcp.c.obj)
 .debug_abbrev  0x00007b38       0xfe target\libxme_core_core.a(packet.c.obj)
 .debug_abbrev  0x00007c36      0x2a2 target\libxme_core_core.a(resourceManager.c.obj)
 .debug_abbrev  0x00007ed8      0x18d target\libxme_core_core.a(routingTable.c.obj)
 .debug_abbrev  0x00008065      0x1fc target\libxme_core_core.a(rr.c.obj)
 .debug_abbrev  0x00008261      0x17e target\libxme_core_core.a(broker.c.obj)
 .debug_abbrev  0x000083df      0x231 target\libxme_hal_net.a(net_arch.c.obj)
 .debug_abbrev  0x00008610      0x205 target\libxme_lwip_netif_arp.a(etharp.c.obj)
 .debug_abbrev  0x00008815      0x17d target\libxme_lwip_core.a(netdb.c.obj)
 .debug_abbrev  0x00008992      0x191 target\libxme_stm32f0xspl_rcc.a(stm32f10x_rcc.c.obj)
 .debug_abbrev  0x00008b23      0x135 target\libxme_stm32f0xspl_misc.a(misc.c.obj)
 .debug_abbrev  0x00008c58      0x14a target\libxme_stm32f0xspl_misc.a(stm32f10x_exti.c.obj)
 .debug_abbrev  0x00008da2      0x1a4 target\libxme_stm32f0xspl_gpio.a(stm32f10x_gpio.c.obj)
 .debug_abbrev  0x00008f46       0x27 target\libxme_hal_energy.a(energy_arch.c.obj)
 .debug_abbrev  0x00008f6d      0x1c4 target\libxme_hal_sched.a(sched_arch.c.obj)
 .debug_abbrev  0x00009131      0x148 target\libxme_hal_sync.a(sync_arch.c.obj)
 .debug_abbrev  0x00009279       0xf9 target\libxme_hal_table.a(table_arch.c.obj)
 .debug_abbrev  0x00009372      0x100 target\libxme_hal_tls.a(tls_arch.c.obj)
 .debug_abbrev  0x00009472       0xf9 target\libxme_hal_random.a(random_arch.c.obj)
 .debug_abbrev  0x0000956b      0x13a target\libxme_hal_sharedPtr.a(sharedPtr_arch.c.obj)
 .debug_abbrev  0x000096a5      0x112 target\libxme_hal_mem.a(mem_arch.c.obj)

.debug_line     0x00000000    0x3040a
 *(.debug_line)
 .debug_line    0x00000000      0x3f4 CMakeFiles/firmware.dir/stm32f10x_it.c.obj
 .debug_line    0x000003f4      0x798 CMakeFiles/firmware.dir/lwip_test.c.obj
 .debug_line    0x00000b8c      0xae9 CMakeFiles/firmware.dir/udpecho.c.obj
 .debug_line    0x00001675      0x80e CMakeFiles/firmware.dir/dac_spi_cs_mux.c.obj
 .debug_line    0x00001e83      0x8ff CMakeFiles/firmware.dir/adc_spi_cs_mux.c.obj
 .debug_line    0x00002782      0xdda CMakeFiles/firmware.dir/belle_II_PS_node_XME_Component.c.obj
 .debug_line    0x0000355c      0x858 CMakeFiles/firmware.dir/help_functions_for_calibration.c.obj
 .debug_line    0x00003db4      0xf66 CMakeFiles/firmware.dir/application_logic.c.obj
 .debug_line    0x00004d1a      0xaab CMakeFiles/firmware.dir/self_tests.c.obj
 .debug_line    0x000057c5      0x9a6 CMakeFiles/firmware.dir/regulator_status_enable_pins.c.obj
 .debug_line    0x0000616b      0x973 CMakeFiles/firmware.dir/initialization_functions.c.obj
 .debug_line    0x00006ade      0xea2 CMakeFiles/firmware.dir/startup.c.obj
 .debug_line    0x00007980      0xd34 CMakeFiles/firmware.dir/recalibrate_logic.c.obj
 .debug_line    0x000086b4      0xdae CMakeFiles/firmware.dir/shutdown.c.obj
 .debug_line    0x00009462      0x614 CMakeFiles/firmware.dir/alive_strobe.c.obj
 .debug_line    0x00009a76      0xea6 CMakeFiles/firmware.dir/belle_network_connection_Component.c.obj
 .debug_line    0x0000a91c      0xeec CMakeFiles/firmware.dir/main.c.obj
 .debug_line    0x0000b808       0xe2 target\libxme_target_startup.a(startup_stm32f10x_cl.S.obj)
 .debug_line    0x0000b8ea      0x28e target\libxme_target_startup.a(port.c.obj)
 .debug_line    0x0000bb78      0x1bb target\libxme_lwip_core.a(def.c.obj)
 .debug_line    0x0000bd33      0x992 target\libxme_lwip_core.a(pbuf.c.obj)
 .debug_line    0x0000c6c5      0x923 target\libxme_lwip_core.a(tcp.c.obj)
 .debug_line    0x0000cfe8      0x86c target\libxme_lwip_core.a(tcp_out.c.obj)
 .debug_line    0x0000d854      0x615 target\libxme_lwip_core.a(timers.c.obj)
 .debug_line    0x0000de69      0x6d5 target\libxme_lwip_core.a(udp.c.obj)
 .debug_line    0x0000e53e      0xd27 target\libxme_lwip_core.a(sockets.c.obj)
 .debug_line    0x0000f265      0x5b4 target\libxme_lwip_core.a(tcpip.c.obj)
 .debug_line    0x0000f819      0xf38 target\libxme_lwip_core.a(dhcp.c.obj)
 .debug_line    0x00010751      0x660 target\libxme_lwip_core.a(dns.c.obj)
 .debug_line    0x00010db1      0x58d target\libxme_lwip_core.a(init.c.obj)
 .debug_line    0x0001133e      0x692 target\libxme_lwip_core.a(mem.c.obj)
 .debug_line    0x000119d0      0x7cb target\libxme_lwip_core.a(memp.c.obj)
 .debug_line    0x0001219b      0x45d target\libxme_lwip_core.a(netif.c.obj)
 .debug_line    0x000125f8      0x85e target\libxme_lwip_core.a(tcp_in.c.obj)
 .debug_line    0x00012e56      0x9c4 target\libxme_lwip_core.a(api_lib.c.obj)
 .debug_line    0x0001381a      0xb2c target\libxme_lwip_core.a(api_msg.c.obj)
 .debug_line    0x00014346      0x503 target\libxme_lwip_core.a(netbuf.c.obj)
 .debug_line    0x00014849      0x573 target\libxme_lwip_core.a(raw.c.obj)
 .debug_line    0x00014dbc      0x539 target\libxme_lwip_core_ipv4.a(icmp.c.obj)
 .debug_line    0x000152f5      0x85b target\libxme_lwip_core_ipv4.a(igmp.c.obj)
 .debug_line    0x00015b50      0x507 target\libxme_lwip_core_ipv4.a(inet_chksum.c.obj)
 .debug_line    0x00016057      0x61b target\libxme_lwip_core_ipv4.a(ip.c.obj)
 .debug_line    0x00016672      0x33e target\libxme_lwip_core_ipv4.a(ip_addr.c.obj)
 .debug_line    0x000169b0      0x678 target\libxme_lwip_core_ipv4.a(ip_frag.c.obj)
 .debug_line    0x00017028      0x6ed target\libxme_lwip_netif_ethernet.a(enet.c.obj)
 .debug_line    0x00017715      0xa2c target\libxme_lwip_netif_ethernet.a(lwiplib.c.obj)
 .debug_line    0x00018141      0xbb4 target\libxme_lwip_netif_ethernet.a(ethernetif.c.obj)
 .debug_line    0x00018cf5      0x4a6 target\libxme_lwip_netif_ethernet.a(sys_arch.c.obj)
 .debug_line    0x0001919b      0x932 target\libxme_lwip_netif_ethernet.a(stm32_eth.c.obj)
 .debug_line    0x00019acd      0x584 target\libxme_freertos_kernel.a(queue.c.obj)
 .debug_line    0x0001a051      0x9bd target\libxme_freertos_kernel.a(tasks.c.obj)
 .debug_line    0x0001aa0e      0x449 target\libxme_freertos_kernel.a(list.c.obj)
 .debug_line    0x0001ae57      0x49a target\libxme_freertos_memmang.a(heap_2.c.obj)
 .debug_line    0x0001b2f1      0x704 target\libxme_target_bsp.a(enet_arch.c.obj)
 .debug_line    0x0001b9f5      0x478 target\libxme_target_bsp.a(system_stm32f10x.c.obj)
 .debug_line    0x0001be6d      0x452 target\libxme_hal_dio.a(dio_arch.c.obj)
 .debug_line    0x0001c2bf      0x87b target\libbelle_drivers.a(mux.c.obj)
 .debug_line    0x0001cb3a      0x41a target\libbelle_drivers.a(mux_inst.c.obj)
 .debug_line    0x0001cf54      0x41b target\libbelle_drivers.a(gpio_config.c.obj)
 .debug_line    0x0001d36f      0x83f target\libbelle_drivers.a(spi.c.obj)
 .debug_line    0x0001dbae      0x5b9 target\libbelle_drivers.a(spi_inst.c.obj)
 .debug_line    0x0001e167      0x8a0 target\libbelle_drivers.a(adc_ad7322.c.obj)
 .debug_line    0x0001ea07      0x5d0 target\libbelle_drivers.a(adc_ad7322_inst.c.obj)
 .debug_line    0x0001efd7      0xb0b target\libbelle_drivers.a(dac_ad5392.c.obj)
 .debug_line    0x0001fae2      0x5e5 target\libbelle_drivers.a(dac_ad5392_inst.c.obj)
 .debug_line    0x000200c7      0x499 target\libbelle_drivers.a(adc_intern_stm32f107.c.obj)
 .debug_line    0x00020560      0x1cd target\libbelle_drivers.a(adc_intern_stm32f107_inst.c.obj)
 .debug_line    0x0002072d      0x5bc target\libbelle_drivers.a(i2c.c.obj)
 .debug_line    0x00020ce9      0x5a2 target\libbelle_drivers.a(i2c_inst.c.obj)
 .debug_line    0x0002128b      0x8e9 target\libbelle_drivers.a(eeprom.c.obj)
 .debug_line    0x00021b74      0x62c target\libbelle_drivers.a(eeprom_inst.c.obj)
 .debug_line    0x000221a0      0x4ce target\libxme_stm32f0xspl_spi.a(stm32f10x_spi.c.obj)
 .debug_line    0x0002266e      0x4f5 target\libxme_stm32f0xspl_i2c.a(stm32f10x_i2c.c.obj)
 .debug_line    0x00022b63      0x520 target\libxme_stm32f0xspl_adc.a(stm32f10x_adc.c.obj)
 .debug_line    0x00023083      0x716 target\libxme_core_core.a(core.c.obj)
 .debug_line    0x00023799      0x91c target\libxme_core_core.a(dcc.c.obj)
 .debug_line    0x000240b5     0x1196 target\libxme_core_core.a(directory.c.obj)
 .debug_line    0x0002524b      0xa08 target\libxme_core_core.a(interfaceManager.c.obj)
 .debug_line    0x00025c53      0x692 target\libxme_core_core.a(md.c.obj)
 .debug_line    0x000262e5      0x6c0 target\libxme_core_core.a(nodeManager.c.obj)
 .debug_line    0x000269a5      0x6a6 target\libxme_core_core.a(net_plugin.c.obj)
 .debug_line    0x0002704b      0xb35 target\libxme_core_core.a(net_plugin_tcp.c.obj)
 .debug_line    0x00027b80      0x62c target\libxme_core_core.a(packet.c.obj)
 .debug_line    0x000281ac      0xa58 target\libxme_core_core.a(resourceManager.c.obj)
 .debug_line    0x00028c04      0x985 target\libxme_core_core.a(routingTable.c.obj)
 .debug_line    0x00029589      0x9ad target\libxme_core_core.a(rr.c.obj)
 .debug_line    0x00029f36      0x75a target\libxme_core_core.a(broker.c.obj)
 .debug_line    0x0002a690      0xec6 target\libxme_hal_net.a(net_arch.c.obj)
 .debug_line    0x0002b556      0x7b0 target\libxme_lwip_netif_arp.a(etharp.c.obj)
 .debug_line    0x0002bd06      0x70c target\libxme_lwip_core.a(netdb.c.obj)
 .debug_line    0x0002c412      0x54f target\libxme_stm32f0xspl_rcc.a(stm32f10x_rcc.c.obj)
 .debug_line    0x0002c961      0x3ef target\libxme_stm32f0xspl_misc.a(misc.c.obj)
 .debug_line    0x0002cd50      0x41e target\libxme_stm32f0xspl_misc.a(stm32f10x_exti.c.obj)
 .debug_line    0x0002d16e      0x4a3 target\libxme_stm32f0xspl_gpio.a(stm32f10x_gpio.c.obj)
 .debug_line    0x0002d611       0xe0 target\libxme_hal_energy.a(energy_arch.c.obj)
 .debug_line    0x0002d6f1      0x834 target\libxme_hal_sched.a(sched_arch.c.obj)
 .debug_line    0x0002df25      0x76f target\libxme_hal_sync.a(sync_arch.c.obj)
 .debug_line    0x0002e694      0x5e6 target\libxme_hal_table.a(table_arch.c.obj)
 .debug_line    0x0002ec7a      0x575 target\libxme_hal_tls.a(tls_arch.c.obj)
 .debug_line    0x0002f1ef      0x4e1 target\libxme_hal_random.a(random_arch.c.obj)
 .debug_line    0x0002f6d0      0x707 target\libxme_hal_sharedPtr.a(sharedPtr_arch.c.obj)
 .debug_line    0x0002fdd7      0x633 target\libxme_hal_mem.a(mem_arch.c.obj)

.debug_frame    0x00000000     0x9330
 *(.debug_frame)
 .debug_frame   0x00000000       0xf4 CMakeFiles/firmware.dir/stm32f10x_it.c.obj
 .debug_frame   0x000000f4       0x90 CMakeFiles/firmware.dir/lwip_test.c.obj
 .debug_frame   0x00000184       0x50 CMakeFiles/firmware.dir/udpecho.c.obj
 .debug_frame   0x000001d4       0xf0 CMakeFiles/firmware.dir/dac_spi_cs_mux.c.obj
 .debug_frame   0x000002c4       0x70 CMakeFiles/firmware.dir/adc_spi_cs_mux.c.obj
 .debug_frame   0x00000334      0x12c CMakeFiles/firmware.dir/belle_II_PS_node_XME_Component.c.obj
 .debug_frame   0x00000460       0xb4 CMakeFiles/firmware.dir/help_functions_for_calibration.c.obj
 .debug_frame   0x00000514      0x2c8 CMakeFiles/firmware.dir/application_logic.c.obj
 .debug_frame   0x000007dc       0x70 CMakeFiles/firmware.dir/self_tests.c.obj
 .debug_frame   0x0000084c      0x1e0 CMakeFiles/firmware.dir/regulator_status_enable_pins.c.obj
 .debug_frame   0x00000a2c       0x50 CMakeFiles/firmware.dir/initialization_functions.c.obj
 .debug_frame   0x00000a7c      0x118 CMakeFiles/firmware.dir/startup.c.obj
 .debug_frame   0x00000b94       0x30 CMakeFiles/firmware.dir/recalibrate_logic.c.obj
 .debug_frame   0x00000bc4       0x30 CMakeFiles/firmware.dir/shutdown.c.obj
 .debug_frame   0x00000bf4       0x54 CMakeFiles/firmware.dir/alive_strobe.c.obj
 .debug_frame   0x00000c48      0x164 CMakeFiles/firmware.dir/belle_network_connection_Component.c.obj
 .debug_frame   0x00000dac       0x50 CMakeFiles/firmware.dir/main.c.obj
 .debug_frame   0x00000dfc      0x110 target\libxme_target_startup.a(port.c.obj)
 .debug_frame   0x00000f0c       0x88 target\libxme_lwip_core.a(def.c.obj)
 .debug_frame   0x00000f94      0x280 target\libxme_lwip_core.a(pbuf.c.obj)
 .debug_frame   0x00001214      0x474 target\libxme_lwip_core.a(tcp.c.obj)
 .debug_frame   0x00001688      0x218 target\libxme_lwip_core.a(tcp_out.c.obj)
 .debug_frame   0x000018a0      0x188 target\libxme_lwip_core.a(timers.c.obj)
 .debug_frame   0x00001a28      0x17c target\libxme_lwip_core.a(udp.c.obj)
 .debug_frame   0x00001ba4      0x3c0 target\libxme_lwip_core.a(sockets.c.obj)
 .debug_frame   0x00001f64      0x1b0 target\libxme_lwip_core.a(tcpip.c.obj)
 .debug_frame   0x00002114      0x438 target\libxme_lwip_core.a(dhcp.c.obj)
 .debug_frame   0x0000254c      0x19c target\libxme_lwip_core.a(dns.c.obj)
 .debug_frame   0x000026e8       0x2c target\libxme_lwip_core.a(init.c.obj)
 .debug_frame   0x00002714       0xcc target\libxme_lwip_core.a(mem.c.obj)
 .debug_frame   0x000027e0       0x6c target\libxme_lwip_core.a(memp.c.obj)
 .debug_frame   0x0000284c      0x1d0 target\libxme_lwip_core.a(netif.c.obj)
 .debug_frame   0x00002a1c       0xf8 target\libxme_lwip_core.a(tcp_in.c.obj)
 .debug_frame   0x00002b14      0x290 target\libxme_lwip_core.a(api_lib.c.obj)
 .debug_frame   0x00002da4      0x3b0 target\libxme_lwip_core.a(api_msg.c.obj)
 .debug_frame   0x00003154      0x124 target\libxme_lwip_core.a(netbuf.c.obj)
 .debug_frame   0x00003278      0x104 target\libxme_lwip_core.a(raw.c.obj)
 .debug_frame   0x0000337c       0x90 target\libxme_lwip_core_ipv4.a(icmp.c.obj)
 .debug_frame   0x0000340c      0x204 target\libxme_lwip_core_ipv4.a(igmp.c.obj)
 .debug_frame   0x00003610       0xac target\libxme_lwip_core_ipv4.a(inet_chksum.c.obj)
 .debug_frame   0x000036bc       0xac target\libxme_lwip_core_ipv4.a(ip.c.obj)
 .debug_frame   0x00003768       0xc8 target\libxme_lwip_core_ipv4.a(ip_addr.c.obj)
 .debug_frame   0x00003830      0x110 target\libxme_lwip_core_ipv4.a(ip_frag.c.obj)
 .debug_frame   0x00003940       0x68 target\libxme_lwip_netif_ethernet.a(enet.c.obj)
 .debug_frame   0x000039a8      0x150 target\libxme_lwip_netif_ethernet.a(lwiplib.c.obj)
 .debug_frame   0x00003af8      0x180 target\libxme_lwip_netif_ethernet.a(ethernetif.c.obj)
 .debug_frame   0x00003c78      0x26c target\libxme_lwip_netif_ethernet.a(sys_arch.c.obj)
 .debug_frame   0x00003ee4      0xabc target\libxme_lwip_netif_ethernet.a(stm32_eth.c.obj)
 .debug_frame   0x000049a0      0x204 target\libxme_freertos_kernel.a(queue.c.obj)
 .debug_frame   0x00004ba4      0x460 target\libxme_freertos_kernel.a(tasks.c.obj)
 .debug_frame   0x00005004       0x9c target\libxme_freertos_kernel.a(list.c.obj)
 .debug_frame   0x000050a0       0x80 target\libxme_freertos_memmang.a(heap_2.c.obj)
 .debug_frame   0x00005120       0xe4 target\libxme_target_bsp.a(enet_arch.c.obj)
 .debug_frame   0x00005204       0x80 target\libxme_target_bsp.a(system_stm32f10x.c.obj)
 .debug_frame   0x00005284       0xb0 target\libxme_hal_dio.a(dio_arch.c.obj)
 .debug_frame   0x00005334       0x90 target\libbelle_drivers.a(mux.c.obj)
 .debug_frame   0x000053c4       0x30 target\libbelle_drivers.a(gpio_config.c.obj)
 .debug_frame   0x000053f4       0xcc target\libbelle_drivers.a(spi.c.obj)
 .debug_frame   0x000054c0       0xd0 target\libbelle_drivers.a(adc_ad7322.c.obj)
 .debug_frame   0x00005590      0x24c target\libbelle_drivers.a(dac_ad5392.c.obj)
 .debug_frame   0x000057dc       0xa4 target\libbelle_drivers.a(adc_intern_stm32f107.c.obj)
 .debug_frame   0x00005880       0x30 target\libbelle_drivers.a(i2c.c.obj)
 .debug_frame   0x000058b0      0x1cc target\libbelle_drivers.a(eeprom.c.obj)
 .debug_frame   0x00005a7c      0x29c target\libxme_stm32f0xspl_spi.a(stm32f10x_spi.c.obj)
 .debug_frame   0x00005d18      0x3b4 target\libxme_stm32f0xspl_i2c.a(stm32f10x_i2c.c.obj)
 .debug_frame   0x000060cc      0x400 target\libxme_stm32f0xspl_adc.a(stm32f10x_adc.c.obj)
 .debug_frame   0x000064cc       0x94 target\libxme_core_core.a(core.c.obj)
 .debug_frame   0x00006560      0x1d0 target\libxme_core_core.a(dcc.c.obj)
 .debug_frame   0x00006730      0x2f0 target\libxme_core_core.a(directory.c.obj)
 .debug_frame   0x00006a20      0x254 target\libxme_core_core.a(interfaceManager.c.obj)
 .debug_frame   0x00006c74      0x1d0 target\libxme_core_core.a(md.c.obj)
 .debug_frame   0x00006e44      0x124 target\libxme_core_core.a(nodeManager.c.obj)
 .debug_frame   0x00006f68      0x280 target\libxme_core_core.a(net_plugin.c.obj)
 .debug_frame   0x000071e8      0x2f4 target\libxme_core_core.a(net_plugin_tcp.c.obj)
 .debug_frame   0x000074dc       0xf0 target\libxme_core_core.a(packet.c.obj)
 .debug_frame   0x000075cc      0x3a4 target\libxme_core_core.a(resourceManager.c.obj)
 .debug_frame   0x00007970      0x1a0 target\libxme_core_core.a(routingTable.c.obj)
 .debug_frame   0x00007b10      0x19c target\libxme_core_core.a(rr.c.obj)
 .debug_frame   0x00007cac      0x148 target\libxme_core_core.a(broker.c.obj)
 .debug_frame   0x00007df4      0x2a0 target\libxme_hal_net.a(net_arch.c.obj)
 .debug_frame   0x00008094      0x210 target\libxme_lwip_netif_arp.a(etharp.c.obj)
 .debug_frame   0x000082a4       0x90 target\libxme_lwip_core.a(netdb.c.obj)
 .debug_frame   0x00008334      0x484 target\libxme_stm32f0xspl_rcc.a(stm32f10x_rcc.c.obj)
 .debug_frame   0x000087b8       0x9c target\libxme_stm32f0xspl_misc.a(misc.c.obj)
 .debug_frame   0x00008854       0xec target\libxme_stm32f0xspl_misc.a(stm32f10x_exti.c.obj)
 .debug_frame   0x00008940      0x210 target\libxme_stm32f0xspl_gpio.a(stm32f10x_gpio.c.obj)
 .debug_frame   0x00008b50       0x28 target\libxme_hal_energy.a(energy_arch.c.obj)
 .debug_frame   0x00008b78       0xcc target\libxme_hal_sched.a(sched_arch.c.obj)
 .debug_frame   0x00008c44       0xec target\libxme_hal_sync.a(sync_arch.c.obj)
 .debug_frame   0x00008d30       0x48 target\libxme_hal_table.a(table_arch.c.obj)
 .debug_frame   0x00008d78       0xd0 target\libxme_hal_tls.a(tls_arch.c.obj)
 .debug_frame   0x00008e48       0xa4 target\libxme_hal_random.a(random_arch.c.obj)
 .debug_frame   0x00008eec      0x130 target\libxme_hal_sharedPtr.a(sharedPtr_arch.c.obj)
 .debug_frame   0x0000901c       0xa4 target\libxme_hal_mem.a(mem_arch.c.obj)
 .debug_frame   0x000090c0       0x50 c:/belleii/devenv/toolchain/arm-gcc/bin/../lib/gcc/arm-none-eabi/4.5.2/thumb2\libgcc.a(bpabi.o)
 .debug_frame   0x00009110       0x3c c:/belleii/devenv/toolchain/arm-gcc/bin/../lib/gcc/arm-none-eabi/4.5.2/thumb2\libgcc.a(_divdi3.o)
 .debug_frame   0x0000914c       0x3c c:/belleii/devenv/toolchain/arm-gcc/bin/../lib/gcc/arm-none-eabi/4.5.2/thumb2\libgcc.a(_udivdi3.o)
 .debug_frame   0x00009188       0x20 c:/belleii/devenv/toolchain/arm-gcc/bin/../lib/gcc/arm-none-eabi/4.5.2/thumb2\libgcc.a(_udivsi3.o)
 .debug_frame   0x000091a8       0x30 c:/belleii/devenv/toolchain/arm-gcc/bin/../lib/gcc/arm-none-eabi/4.5.2/../../../../arm-none-eabi/lib/thumb2\libc.a(lib_a-atoi.o)
 .debug_frame   0x000091d8       0x2c c:/belleii/devenv/toolchain/arm-gcc/bin/../lib/gcc/arm-none-eabi/4.5.2/../../../../arm-none-eabi/lib/thumb2\libc.a(lib_a-memcmp.o)
 .debug_frame   0x00009204       0x30 c:/belleii/devenv/toolchain/arm-gcc/bin/../lib/gcc/arm-none-eabi/4.5.2/../../../../arm-none-eabi/lib/thumb2\libc.a(lib_a-memcpy.o)
 .debug_frame   0x00009234       0x2c c:/belleii/devenv/toolchain/arm-gcc/bin/../lib/gcc/arm-none-eabi/4.5.2/../../../../arm-none-eabi/lib/thumb2\libc.a(lib_a-memset.o)
 .debug_frame   0x00009260       0x30 c:/belleii/devenv/toolchain/arm-gcc/bin/../lib/gcc/arm-none-eabi/4.5.2/../../../../arm-none-eabi/lib/thumb2\libc.a(lib_a-strcmp.o)
 .debug_frame   0x00009290       0x20 c:/belleii/devenv/toolchain/arm-gcc/bin/../lib/gcc/arm-none-eabi/4.5.2/../../../../arm-none-eabi/lib/thumb2\libc.a(lib_a-strlen.o)
 .debug_frame   0x000092b0       0x2c c:/belleii/devenv/toolchain/arm-gcc/bin/../lib/gcc/arm-none-eabi/4.5.2/../../../../arm-none-eabi/lib/thumb2\libc.a(lib_a-strncpy.o)
 .debug_frame   0x000092dc       0x54 c:/belleii/devenv/toolchain/arm-gcc/bin/../lib/gcc/arm-none-eabi/4.5.2/../../../../arm-none-eabi/lib/thumb2\libc.a(lib_a-strtol.o)

.debug_str      0x00000000    0x11f62
 *(.debug_str)
 .debug_str     0x00000000      0x1ae CMakeFiles/firmware.dir/stm32f10x_it.c.obj
                                0x1e8 (size before relaxing)
 .debug_str     0x000001ae      0x185 CMakeFiles/firmware.dir/lwip_test.c.obj
                                0x281 (size before relaxing)
 .debug_str     0x00000333      0x450 CMakeFiles/firmware.dir/udpecho.c.obj
                                0x5c1 (size before relaxing)
 .debug_str     0x00000783      0xa59 CMakeFiles/firmware.dir/dac_spi_cs_mux.c.obj
                                0xb94 (size before relaxing)
 .debug_str     0x000011dc      0x7fe CMakeFiles/firmware.dir/adc_spi_cs_mux.c.obj
                               0x11a6 (size before relaxing)
 .debug_str     0x000019da      0xe3f CMakeFiles/firmware.dir/belle_II_PS_node_XME_Component.c.obj
                               0x1c82 (size before relaxing)
 .debug_str     0x00002819      0x33a CMakeFiles/firmware.dir/help_functions_for_calibration.c.obj
                                0xc12 (size before relaxing)
 .debug_str     0x00002b53      0x421 CMakeFiles/firmware.dir/application_logic.c.obj
                               0x163e (size before relaxing)
 .debug_str     0x00002f74      0x14e CMakeFiles/firmware.dir/self_tests.c.obj
                               0x10b8 (size before relaxing)
 .debug_str     0x000030c2      0x2b1 CMakeFiles/firmware.dir/regulator_status_enable_pins.c.obj
                                0xda3 (size before relaxing)
 .debug_str     0x00003373      0x395 CMakeFiles/firmware.dir/initialization_functions.c.obj
                               0x138f (size before relaxing)
 .debug_str     0x00003708      0x1d5 CMakeFiles/firmware.dir/startup.c.obj
                               0x1268 (size before relaxing)
 .debug_str     0x000038dd       0x4e CMakeFiles/firmware.dir/recalibrate_logic.c.obj
                               0x10af (size before relaxing)
 .debug_str     0x0000392b       0x57 CMakeFiles/firmware.dir/shutdown.c.obj
                               0x109d (size before relaxing)
 .debug_str     0x00003982       0x8f CMakeFiles/firmware.dir/alive_strobe.c.obj
                                0x221 (size before relaxing)
 .debug_str     0x00003a11      0x390 CMakeFiles/firmware.dir/belle_network_connection_Component.c.obj
                               0x1991 (size before relaxing)
 .debug_str     0x00003da1      0x747 CMakeFiles/firmware.dir/main.c.obj
                               0x212e (size before relaxing)
 .debug_str     0x000044e8      0x186 target\libxme_target_startup.a(port.c.obj)
                                0x1e6 (size before relaxing)
 .debug_str     0x0000466e       0x80 target\libxme_lwip_core.a(def.c.obj)
                                 0xea (size before relaxing)
 .debug_str     0x000046ee      0x586 target\libxme_lwip_core.a(pbuf.c.obj)
                                0x7b1 (size before relaxing)
 .debug_str     0x00004c74      0x4a1 target\libxme_lwip_core.a(tcp.c.obj)
                                0x9fd (size before relaxing)
 .debug_str     0x00005115      0x215 target\libxme_lwip_core.a(tcp_out.c.obj)
                                0x838 (size before relaxing)
 .debug_str     0x0000532a      0x172 target\libxme_lwip_core.a(timers.c.obj)
                                0x651 (size before relaxing)
 .debug_str     0x0000549c      0x2f0 target\libxme_lwip_core.a(udp.c.obj)
                                0x6e2 (size before relaxing)
 .debug_str     0x0000578c      0x497 target\libxme_lwip_core.a(sockets.c.obj)
                                0xbee (size before relaxing)
 .debug_str     0x00005c23      0x203 target\libxme_lwip_core.a(tcpip.c.obj)
                                0x7d7 (size before relaxing)
 .debug_str     0x00005e26      0x371 target\libxme_lwip_core.a(dhcp.c.obj)
                                0x8b8 (size before relaxing)
 .debug_str     0x00006197      0x223 target\libxme_lwip_core.a(dns.c.obj)
                                0x42e (size before relaxing)
 .debug_str     0x000063ba       0x5f target\libxme_lwip_core.a(init.c.obj)
                                 0xcf (size before relaxing)
 .debug_str     0x00006419       0xd4 target\libxme_lwip_core.a(mem.c.obj)
                                0x1e7 (size before relaxing)
 .debug_str     0x000064ed       0xaa target\libxme_lwip_core.a(memp.c.obj)
                                0x26e (size before relaxing)
 .debug_str     0x00006597      0x16c target\libxme_lwip_core.a(netif.c.obj)
                                0x7b9 (size before relaxing)
 .debug_str     0x00006703      0x157 target\libxme_lwip_core.a(tcp_in.c.obj)
                                0x7e1 (size before relaxing)
 .debug_str     0x0000685a      0x204 target\libxme_lwip_core.a(api_lib.c.obj)
                                0x9ab (size before relaxing)
 .debug_str     0x00006a5e      0x21e target\libxme_lwip_core.a(api_msg.c.obj)
                                0xac7 (size before relaxing)
 .debug_str     0x00006c7c       0xcf target\libxme_lwip_core.a(netbuf.c.obj)
                                0x32e (size before relaxing)
 .debug_str     0x00006d4b       0xb2 target\libxme_lwip_core.a(raw.c.obj)
                                0x4a9 (size before relaxing)
 .debug_str     0x00006dfd       0xe6 target\libxme_lwip_core_ipv4.a(icmp.c.obj)
                                0x412 (size before relaxing)
 .debug_str     0x00006ee3      0x205 target\libxme_lwip_core_ipv4.a(igmp.c.obj)
                                0x5b3 (size before relaxing)
 .debug_str     0x000070e8       0xe5 target\libxme_lwip_core_ipv4.a(inet_chksum.c.obj)
                                0x1e4 (size before relaxing)
 .debug_str     0x000071cd       0xde target\libxme_lwip_core_ipv4.a(ip.c.obj)
                                0x580 (size before relaxing)
 .debug_str     0x000072ab       0xce target\libxme_lwip_core_ipv4.a(ip_addr.c.obj)
                                0x2ae (size before relaxing)
 .debug_str     0x00007379      0x215 target\libxme_lwip_core_ipv4.a(ip_frag.c.obj)
                                0x5d9 (size before relaxing)
 .debug_str     0x0000758e       0xba target\libxme_lwip_netif_ethernet.a(enet.c.obj)
                                0x157 (size before relaxing)
 .debug_str     0x00007648      0x591 target\libxme_lwip_netif_ethernet.a(lwiplib.c.obj)
                                0x9a5 (size before relaxing)
 .debug_str     0x00007bd9      0x478 target\libxme_lwip_netif_ethernet.a(ethernetif.c.obj)
                                0x7b2 (size before relaxing)
 .debug_str     0x00008051      0x206 target\libxme_lwip_netif_ethernet.a(sys_arch.c.obj)
                                0x337 (size before relaxing)
 .debug_str     0x00008257     0x10c3 target\libxme_lwip_netif_ethernet.a(stm32_eth.c.obj)
                               0x149a (size before relaxing)
 .debug_str     0x0000931a      0x3d9 target\libxme_freertos_kernel.a(queue.c.obj)
                                0x4b3 (size before relaxing)
 .debug_str     0x000096f3      0x6e4 target\libxme_freertos_kernel.a(tasks.c.obj)
                                0x8ef (size before relaxing)
 .debug_str     0x00009dd7       0xe3 target\libxme_freertos_kernel.a(list.c.obj)
                                0x216 (size before relaxing)
 .debug_str     0x00009eba      0x193 target\libxme_freertos_memmang.a(heap_2.c.obj)
                                0x241 (size before relaxing)
 .debug_str     0x0000a04d      0x2df target\libxme_target_bsp.a(enet_arch.c.obj)
                                0xc2b (size before relaxing)
 .debug_str     0x0000a32c      0x18f target\libxme_target_bsp.a(system_stm32f10x.c.obj)
                                0x2b2 (size before relaxing)
 .debug_str     0x0000a4bb      0x15f target\libxme_hal_dio.a(dio_arch.c.obj)
                                0x396 (size before relaxing)
 .debug_str     0x0000a61a       0xc9 target\libbelle_drivers.a(mux.c.obj)
                                0x4fa (size before relaxing)
 .debug_str     0x0000a6e3       0x61 target\libbelle_drivers.a(mux_inst.c.obj)
                                0x2a5 (size before relaxing)
 .debug_str     0x0000a744       0x72 target\libbelle_drivers.a(gpio_config.c.obj)
                                0x26b (size before relaxing)
 .debug_str     0x0000a7b6      0x1af target\libbelle_drivers.a(spi.c.obj)
                                0x768 (size before relaxing)
 .debug_str     0x0000a965       0x51 target\libbelle_drivers.a(spi_inst.c.obj)
                                0x2c0 (size before relaxing)
 .debug_str     0x0000a9b6      0x1ff target\libbelle_drivers.a(adc_ad7322.c.obj)
                                0x71d (size before relaxing)
 .debug_str     0x0000abb5       0x61 target\libbelle_drivers.a(adc_ad7322_inst.c.obj)
                                0x2e1 (size before relaxing)
 .debug_str     0x0000ac16      0x508 target\libbelle_drivers.a(dac_ad5392.c.obj)
                                0xc58 (size before relaxing)
 .debug_str     0x0000b11e       0x58 target\libbelle_drivers.a(dac_ad5392_inst.c.obj)
                                0x446 (size before relaxing)
 .debug_str     0x0000b176      0x1c4 target\libbelle_drivers.a(adc_intern_stm32f107.c.obj)
                                0x474 (size before relaxing)
 .debug_str     0x0000b33a       0x62 target\libbelle_drivers.a(adc_intern_stm32f107_inst.c.obj)
                                0x129 (size before relaxing)
 .debug_str     0x0000b39c       0xda target\libbelle_drivers.a(i2c.c.obj)
                                0x406 (size before relaxing)
 .debug_str     0x0000b476       0x51 target\libbelle_drivers.a(i2c_inst.c.obj)
                                0x226 (size before relaxing)
 .debug_str     0x0000b4c7      0x247 target\libbelle_drivers.a(eeprom.c.obj)
                                0x5a7 (size before relaxing)
 .debug_str     0x0000b70e       0x72 target\libbelle_drivers.a(eeprom_inst.c.obj)
                                0x2b9 (size before relaxing)
 .debug_str     0x0000b780      0x2fd target\libxme_stm32f0xspl_spi.a(stm32f10x_spi.c.obj)
                                0x5c7 (size before relaxing)
 .debug_str     0x0000ba7d      0x359 target\libxme_stm32f0xspl_i2c.a(stm32f10x_i2c.c.obj)
                                0x5e3 (size before relaxing)
 .debug_str     0x0000bdd6      0x466 target\libxme_stm32f0xspl_adc.a(stm32f10x_adc.c.obj)
                                0x678 (size before relaxing)
 .debug_str     0x0000c23c       0xa0 target\libxme_core_core.a(core.c.obj)
                                0x458 (size before relaxing)
 .debug_str     0x0000c2dc      0xcad target\libxme_core_core.a(dcc.c.obj)
                               0x1984 (size before relaxing)
 .debug_str     0x0000cf89      0x865 target\libxme_core_core.a(directory.c.obj)
                               0x2391 (size before relaxing)
 .debug_str     0x0000d7ee      0x728 target\libxme_core_core.a(interfaceManager.c.obj)
                                0xf0f (size before relaxing)
 .debug_str     0x0000df16      0x47b target\libxme_core_core.a(md.c.obj)
                                0x9e0 (size before relaxing)
 .debug_str     0x0000e391      0x289 target\libxme_core_core.a(nodeManager.c.obj)
                               0x1007 (size before relaxing)
 .debug_str     0x0000e61a      0x431 target\libxme_core_core.a(net_plugin.c.obj)
                                0xc60 (size before relaxing)
 .debug_str     0x0000ea4b      0x6d2 target\libxme_core_core.a(net_plugin_tcp.c.obj)
                               0x1081 (size before relaxing)
 .debug_str     0x0000f11d      0x157 target\libxme_core_core.a(packet.c.obj)
                                0x444 (size before relaxing)
 .debug_str     0x0000f274      0x796 target\libxme_core_core.a(resourceManager.c.obj)
                               0x1de5 (size before relaxing)
 .debug_str     0x0000fa0a      0x476 target\libxme_core_core.a(routingTable.c.obj)
                                0xcb1 (size before relaxing)
 .debug_str     0x0000fe80      0x269 target\libxme_core_core.a(rr.c.obj)
                               0x19f4 (size before relaxing)
 .debug_str     0x000100e9      0x1f8 target\libxme_core_core.a(broker.c.obj)
                                0xbcf (size before relaxing)
 .debug_str     0x000102e1      0x4a1 target\libxme_hal_net.a(net_arch.c.obj)
                                0xf17 (size before relaxing)
 .debug_str     0x00010782      0x348 target\libxme_lwip_netif_arp.a(etharp.c.obj)
                                0x8af (size before relaxing)
 .debug_str     0x00010aca      0x158 target\libxme_lwip_core.a(netdb.c.obj)
                                0x454 (size before relaxing)
 .debug_str     0x00010c22      0x487 target\libxme_stm32f0xspl_rcc.a(stm32f10x_rcc.c.obj)
                                0x6df (size before relaxing)
 .debug_str     0x000110a9      0x13c target\libxme_stm32f0xspl_misc.a(misc.c.obj)
                                0x340 (size before relaxing)
 .debug_str     0x000111e5      0x118 target\libxme_stm32f0xspl_misc.a(stm32f10x_exti.c.obj)
                                0x2db (size before relaxing)
 .debug_str     0x000112fd      0x27f target\libxme_stm32f0xspl_gpio.a(stm32f10x_gpio.c.obj)
                                0x496 (size before relaxing)
 .debug_str     0x0001157c       0x7a target\libxme_hal_energy.a(energy_arch.c.obj)
                                 0x86 (size before relaxing)
 .debug_str     0x000115f6      0x264 target\libxme_hal_sched.a(sched_arch.c.obj)
                                0x8f9 (size before relaxing)
 .debug_str     0x0001185a      0x1e3 target\libxme_hal_sync.a(sync_arch.c.obj)
                                0x72a (size before relaxing)
 .debug_str     0x00011a3d       0x85 target\libxme_hal_table.a(table_arch.c.obj)
                                0x540 (size before relaxing)
 .debug_str     0x00011ac2       0xf8 target\libxme_hal_tls.a(tls_arch.c.obj)
                                0x55b (size before relaxing)
 .debug_str     0x00011bba       0xf7 target\libxme_hal_random.a(random_arch.c.obj)
                                0x4ac (size before relaxing)
 .debug_str     0x00011cb1      0x20e target\libxme_hal_sharedPtr.a(sharedPtr_arch.c.obj)
                                0x665 (size before relaxing)
 .debug_str     0x00011ebf       0xa3 target\libxme_hal_mem.a(mem_arch.c.obj)
                                0x2a3 (size before relaxing)

.debug_loc      0x00000000     0xfb55
 *(.debug_loc)
 .debug_loc     0x00000000      0x18c CMakeFiles/firmware.dir/stm32f10x_it.c.obj
 .debug_loc     0x0000018c       0xe0 CMakeFiles/firmware.dir/lwip_test.c.obj
 .debug_loc     0x0000026c       0x72 CMakeFiles/firmware.dir/udpecho.c.obj
 .debug_loc     0x000002de      0x188 CMakeFiles/firmware.dir/dac_spi_cs_mux.c.obj
 .debug_loc     0x00000466       0xa8 CMakeFiles/firmware.dir/adc_spi_cs_mux.c.obj
 .debug_loc     0x0000050e      0x200 CMakeFiles/firmware.dir/belle_II_PS_node_XME_Component.c.obj
 .debug_loc     0x0000070e      0x118 CMakeFiles/firmware.dir/help_functions_for_calibration.c.obj
 .debug_loc     0x00000826      0x46a CMakeFiles/firmware.dir/application_logic.c.obj
 .debug_loc     0x00000c90       0xa8 CMakeFiles/firmware.dir/self_tests.c.obj
 .debug_loc     0x00000d38      0x2f0 CMakeFiles/firmware.dir/regulator_status_enable_pins.c.obj
 .debug_loc     0x00001028       0x70 CMakeFiles/firmware.dir/initialization_functions.c.obj
 .debug_loc     0x00001098      0x1c2 CMakeFiles/firmware.dir/startup.c.obj
 .debug_loc     0x0000125a       0x38 CMakeFiles/firmware.dir/recalibrate_logic.c.obj
 .debug_loc     0x00001292       0x38 CMakeFiles/firmware.dir/shutdown.c.obj
 .debug_loc     0x000012ca       0x70 CMakeFiles/firmware.dir/alive_strobe.c.obj
 .debug_loc     0x0000133a      0x25c CMakeFiles/firmware.dir/belle_network_connection_Component.c.obj
 .debug_loc     0x00001596       0x70 CMakeFiles/firmware.dir/main.c.obj
 .debug_loc     0x00001606      0x178 target\libxme_target_startup.a(port.c.obj)
 .debug_loc     0x0000177e       0xe0 target\libxme_lwip_core.a(def.c.obj)
 .debug_loc     0x0000185e      0x460 target\libxme_lwip_core.a(pbuf.c.obj)
 .debug_loc     0x00001cbe      0x7e8 target\libxme_lwip_core.a(tcp.c.obj)
 .debug_loc     0x000024a6      0x382 target\libxme_lwip_core.a(tcp_out.c.obj)
 .debug_loc     0x00002828      0x288 target\libxme_lwip_core.a(timers.c.obj)
 .debug_loc     0x00002ab0      0x295 target\libxme_lwip_core.a(udp.c.obj)
 .debug_loc     0x00002d45      0x68e target\libxme_lwip_core.a(sockets.c.obj)
 .debug_loc     0x000033d3      0x2d8 target\libxme_lwip_core.a(tcpip.c.obj)
 .debug_loc     0x000036ab      0x774 target\libxme_lwip_core.a(dhcp.c.obj)
 .debug_loc     0x00003e1f      0x2ce target\libxme_lwip_core.a(dns.c.obj)
 .debug_loc     0x000040ed       0x2c target\libxme_lwip_core.a(init.c.obj)
 .debug_loc     0x00004119      0x150 target\libxme_lwip_core.a(mem.c.obj)
 .debug_loc     0x00004269       0xa8 target\libxme_lwip_core.a(memp.c.obj)
 .debug_loc     0x00004311      0x33c target\libxme_lwip_core.a(netif.c.obj)
 .debug_loc     0x0000464d      0x18a target\libxme_lwip_core.a(tcp_in.c.obj)
 .debug_loc     0x000047d7      0x460 target\libxme_lwip_core.a(api_lib.c.obj)
 .debug_loc     0x00004c37      0x658 target\libxme_lwip_core.a(api_msg.c.obj)
 .debug_loc     0x0000528f      0x1f8 target\libxme_lwip_core.a(netbuf.c.obj)
 .debug_loc     0x00005487      0x1c0 target\libxme_lwip_core.a(raw.c.obj)
 .debug_loc     0x00005647       0xe0 target\libxme_lwip_core_ipv4.a(icmp.c.obj)
 .debug_loc     0x00005727      0x374 target\libxme_lwip_core_ipv4.a(igmp.c.obj)
 .debug_loc     0x00005a9b      0x118 target\libxme_lwip_core_ipv4.a(inet_chksum.c.obj)
 .debug_loc     0x00005bb3      0x118 target\libxme_lwip_core_ipv4.a(ip.c.obj)
 .debug_loc     0x00005ccb      0x150 target\libxme_lwip_core_ipv4.a(ip_addr.c.obj)
 .debug_loc     0x00005e1b      0x1c0 target\libxme_lwip_core_ipv4.a(ip_frag.c.obj)
 .debug_loc     0x00005fdb       0x9c target\libxme_lwip_netif_ethernet.a(enet.c.obj)
 .debug_loc     0x00006077      0x244 target\libxme_lwip_netif_ethernet.a(lwiplib.c.obj)
 .debug_loc     0x000062bb      0x288 target\libxme_lwip_netif_ethernet.a(ethernetif.c.obj)
 .debug_loc     0x00006543      0x43c target\libxme_lwip_netif_ethernet.a(sys_arch.c.obj)
 .debug_loc     0x0000697f     0x14d8 target\libxme_lwip_netif_ethernet.a(stm32_eth.c.obj)
 .debug_loc     0x00007e57      0x380 target\libxme_freertos_kernel.a(queue.c.obj)
 .debug_loc     0x000081d7      0x7b0 target\libxme_freertos_kernel.a(tasks.c.obj)
 .debug_loc     0x00008987      0x118 target\libxme_freertos_kernel.a(list.c.obj)
 .debug_loc     0x00008a9f       0xc8 target\libxme_freertos_memmang.a(heap_2.c.obj)
 .debug_loc     0x00008b67      0x172 target\libxme_target_bsp.a(enet_arch.c.obj)
 .debug_loc     0x00008cd9       0xc8 target\libxme_target_bsp.a(system_stm32f10x.c.obj)
 .debug_loc     0x00008da1      0x118 target\libxme_hal_dio.a(dio_arch.c.obj)
 .debug_loc     0x00008eb9       0xe0 target\libbelle_drivers.a(mux.c.obj)
 .debug_loc     0x00008f99       0x38 target\libbelle_drivers.a(gpio_config.c.obj)
 .debug_loc     0x00008fd1      0x150 target\libbelle_drivers.a(spi.c.obj)
 .debug_loc     0x00009121      0x150 target\libbelle_drivers.a(adc_ad7322.c.obj)
 .debug_loc     0x00009271      0x3f0 target\libbelle_drivers.a(dac_ad5392.c.obj)
 .debug_loc     0x00009661      0x118 target\libbelle_drivers.a(adc_intern_stm32f107.c.obj)
 .debug_loc     0x00009779       0x38 target\libbelle_drivers.a(i2c.c.obj)
 .debug_loc     0x000097b1      0x310 target\libbelle_drivers.a(eeprom.c.obj)
 .debug_loc     0x00009ac1      0x508 target\libxme_stm32f0xspl_spi.a(stm32f10x_spi.c.obj)
 .debug_loc     0x00009fc9      0x738 target\libxme_stm32f0xspl_i2c.a(stm32f10x_i2c.c.obj)
 .debug_loc     0x0000a701      0x7d4 target\libxme_stm32f0xspl_adc.a(stm32f10x_adc.c.obj)
 .debug_loc     0x0000aed5       0xdc target\libxme_core_core.a(core.c.obj)
 .debug_loc     0x0000afb1      0x330 target\libxme_core_core.a(dcc.c.obj)
 .debug_loc     0x0000b2e1      0x51d target\libxme_core_core.a(directory.c.obj)
 .debug_loc     0x0000b7fe      0x3e4 target\libxme_core_core.a(interfaceManager.c.obj)
 .debug_loc     0x0000bbe2      0x330 target\libxme_core_core.a(md.c.obj)
 .debug_loc     0x0000bf12      0x1d4 target\libxme_core_core.a(nodeManager.c.obj)
 .debug_loc     0x0000c0e6      0x45c target\libxme_core_core.a(net_plugin.c.obj)
 .debug_loc     0x0000c542      0x519 target\libxme_core_core.a(net_plugin_tcp.c.obj)
 .debug_loc     0x0000ca5b      0x188 target\libxme_core_core.a(packet.c.obj)
 .debug_loc     0x0000cbe3      0x67a target\libxme_core_core.a(resourceManager.c.obj)
 .debug_loc     0x0000d25d      0x2c0 target\libxme_core_core.a(routingTable.c.obj)
 .debug_loc     0x0000d51d      0x2c0 target\libxme_core_core.a(rr.c.obj)
 .debug_loc     0x0000d7dd      0x218 target\libxme_core_core.a(broker.c.obj)
 .debug_loc     0x0000d9f5      0x484 target\libxme_hal_net.a(net_arch.c.obj)
 .debug_loc     0x0000de79      0x380 target\libxme_lwip_netif_arp.a(etharp.c.obj)
 .debug_loc     0x0000e1f9       0xe0 target\libxme_lwip_core.a(netdb.c.obj)
 .debug_loc     0x0000e2d9      0x8d4 target\libxme_stm32f0xspl_rcc.a(stm32f10x_rcc.c.obj)
 .debug_loc     0x0000ebad      0x118 target\libxme_stm32f0xspl_misc.a(misc.c.obj)
 .debug_loc     0x0000ecc5      0x1b4 target\libxme_stm32f0xspl_misc.a(stm32f10x_exti.c.obj)
 .debug_loc     0x0000ee79      0x3e4 target\libxme_stm32f0xspl_gpio.a(stm32f10x_gpio.c.obj)
 .debug_loc     0x0000f25d       0x2c target\libxme_hal_energy.a(energy_arch.c.obj)
 .debug_loc     0x0000f289      0x144 target\libxme_hal_sched.a(sched_arch.c.obj)
 .debug_loc     0x0000f3cd      0x17c target\libxme_hal_sync.a(sync_arch.c.obj)
 .debug_loc     0x0000f549       0x70 target\libxme_hal_table.a(table_arch.c.obj)
 .debug_loc     0x0000f5b9      0x158 target\libxme_hal_tls.a(tls_arch.c.obj)
 .debug_loc     0x0000f711      0x114 target\libxme_hal_random.a(random_arch.c.obj)
 .debug_loc     0x0000f825      0x218 target\libxme_hal_sharedPtr.a(sharedPtr_arch.c.obj)
 .debug_loc     0x0000fa3d      0x118 target\libxme_hal_mem.a(mem_arch.c.obj)

.debug_macinfo  0x00000000  0x1087271
 *(.debug_macinfo)
 .debug_macinfo
                0x00000000    0x4b94b CMakeFiles/firmware.dir/stm32f10x_it.c.obj
 .debug_macinfo
                0x0004b94b    0x51cad CMakeFiles/firmware.dir/lwip_test.c.obj
 .debug_macinfo
                0x0009d5f8    0x57286 CMakeFiles/firmware.dir/udpecho.c.obj
 .debug_macinfo
                0x000f487e    0x57e18 CMakeFiles/firmware.dir/dac_spi_cs_mux.c.obj
 .debug_macinfo
                0x0014c696    0x58bbd CMakeFiles/firmware.dir/adc_spi_cs_mux.c.obj
 .debug_macinfo
                0x001a5253    0x5deee CMakeFiles/firmware.dir/belle_II_PS_node_XME_Component.c.obj
 .debug_macinfo
                0x00203141    0x57e34 CMakeFiles/firmware.dir/help_functions_for_calibration.c.obj
 .debug_macinfo
                0x0025af75    0x5df67 CMakeFiles/firmware.dir/application_logic.c.obj
 .debug_macinfo
                0x002b8edc    0x5ac97 CMakeFiles/firmware.dir/self_tests.c.obj
 .debug_macinfo
                0x00313b73    0x5aaf7 CMakeFiles/firmware.dir/regulator_status_enable_pins.c.obj
 .debug_macinfo
                0x0036e66a    0x58dfe CMakeFiles/firmware.dir/initialization_functions.c.obj
 .debug_macinfo
                0x003c7468    0x5dd36 CMakeFiles/firmware.dir/startup.c.obj
 .debug_macinfo
                0x0042519e    0x5da26 CMakeFiles/firmware.dir/recalibrate_logic.c.obj
 .debug_macinfo
                0x00482bc4    0x5dd4d CMakeFiles/firmware.dir/shutdown.c.obj
 .debug_macinfo
                0x004e0911    0x4db87 CMakeFiles/firmware.dir/alive_strobe.c.obj
 .debug_macinfo
                0x0052e498    0x5d9cb CMakeFiles/firmware.dir/belle_network_connection_Component.c.obj
 .debug_macinfo
                0x0058be63    0x5e92b CMakeFiles/firmware.dir/main.c.obj
 .debug_macinfo
                0x005ea78e     0x46f6 target\libxme_target_startup.a(port.c.obj)
 .debug_macinfo
                0x005eee84     0x4823 target\libxme_lwip_core.a(def.c.obj)
 .debug_macinfo
                0x005f36a7     0xe069 target\libxme_lwip_core.a(pbuf.c.obj)
 .debug_macinfo
                0x00601710     0xac08 target\libxme_lwip_core.a(tcp.c.obj)
 .debug_macinfo
                0x0060c318     0xac2f target\libxme_lwip_core.a(tcp_out.c.obj)
 .debug_macinfo
                0x00616f47     0xcb0a target\libxme_lwip_core.a(timers.c.obj)
 .debug_macinfo
                0x00623a51     0x9f4a target\libxme_lwip_core.a(udp.c.obj)
 .debug_macinfo
                0x0062d99b     0xdbd7 target\libxme_lwip_core.a(sockets.c.obj)
 .debug_macinfo
                0x0063b572     0xaa52 target\libxme_lwip_core.a(tcpip.c.obj)
 .debug_macinfo
                0x00645fc4    0x5410b target\libxme_lwip_core.a(dhcp.c.obj)
 .debug_macinfo
                0x0069a0cf     0x86d0 target\libxme_lwip_core.a(dns.c.obj)
 .debug_macinfo
                0x006a279f     0xe810 target\libxme_lwip_core.a(init.c.obj)
 .debug_macinfo
                0x006b0faf     0xa48f target\libxme_lwip_core.a(mem.c.obj)
 .debug_macinfo
                0x006bb43e     0xf903 target\libxme_lwip_core.a(memp.c.obj)
 .debug_macinfo
                0x006cad41     0x9a59 target\libxme_lwip_core.a(netif.c.obj)
 .debug_macinfo
                0x006d479a     0x8df6 target\libxme_lwip_core.a(tcp_in.c.obj)
 .debug_macinfo
                0x006dd590     0xc9e5 target\libxme_lwip_core.a(api_lib.c.obj)
 .debug_macinfo
                0x006e9f75     0xccf6 target\libxme_lwip_core.a(api_msg.c.obj)
 .debug_macinfo
                0x006f6c6b     0x79e7 target\libxme_lwip_core.a(netbuf.c.obj)
 .debug_macinfo
                0x006fe652     0x85c4 target\libxme_lwip_core.a(raw.c.obj)
 .debug_macinfo
                0x00706c16     0x959a target\libxme_lwip_core_ipv4.a(icmp.c.obj)
 .debug_macinfo
                0x007101b0     0xbe23 target\libxme_lwip_core_ipv4.a(igmp.c.obj)
 .debug_macinfo
                0x0071bfd3     0x799a target\libxme_lwip_core_ipv4.a(inet_chksum.c.obj)
 .debug_macinfo
                0x0072396d     0xb6b8 target\libxme_lwip_core_ipv4.a(ip.c.obj)
 .debug_macinfo
                0x0072f025     0x5bab target\libxme_lwip_core_ipv4.a(ip_addr.c.obj)
 .debug_macinfo
                0x00734bd0     0x968c target\libxme_lwip_core_ipv4.a(ip_frag.c.obj)
 .debug_macinfo
                0x0073e25c     0xcf08 target\libxme_lwip_netif_ethernet.a(enet.c.obj)
 .debug_macinfo
                0x0074b164    0x5685d target\libxme_lwip_netif_ethernet.a(lwiplib.c.obj)
 .debug_macinfo
                0x007a19c1    0x5dad1 target\libxme_lwip_netif_ethernet.a(ethernetif.c.obj)
 .debug_macinfo
                0x007ff492     0x8519 target\libxme_lwip_netif_ethernet.a(sys_arch.c.obj)
 .debug_macinfo
                0x008079ab    0x53176 target\libxme_lwip_netif_ethernet.a(stm32_eth.c.obj)
 .debug_macinfo
                0x0085ab21     0x6654 target\libxme_freertos_kernel.a(queue.c.obj)
 .debug_macinfo
                0x00861175     0xac53 target\libxme_freertos_kernel.a(tasks.c.obj)
 .debug_macinfo
                0x0086bdc8     0x5e89 target\libxme_freertos_kernel.a(list.c.obj)
 .debug_macinfo
                0x00871c51     0x6537 target\libxme_freertos_memmang.a(heap_2.c.obj)
 .debug_macinfo
                0x00878188    0x557f1 target\libxme_target_bsp.a(enet_arch.c.obj)
 .debug_macinfo
                0x008cd979    0x4b969 target\libxme_target_bsp.a(system_stm32f10x.c.obj)
 .debug_macinfo
                0x009192e2    0x4b953 target\libxme_hal_dio.a(dio_arch.c.obj)
 .debug_macinfo
                0x00964c35    0x4f3d9 target\libbelle_drivers.a(mux.c.obj)
 .debug_macinfo
                0x009b400e    0x4c2dd target\libbelle_drivers.a(mux_inst.c.obj)
 .debug_macinfo
                0x00a002eb    0x4b956 target\libbelle_drivers.a(gpio_config.c.obj)
 .debug_macinfo
                0x00a4bc41    0x5082c target\libbelle_drivers.a(spi.c.obj)
 .debug_macinfo
                0x00a9c46d    0x4f8c3 target\libbelle_drivers.a(spi_inst.c.obj)
 .debug_macinfo
                0x00aebd30    0x5105b target\libbelle_drivers.a(adc_ad7322.c.obj)
 .debug_macinfo
                0x00b3cd8b    0x4ff52 target\libbelle_drivers.a(adc_ad7322_inst.c.obj)
 .debug_macinfo
                0x00b8ccdd    0x5200f target\libbelle_drivers.a(dac_ad5392.c.obj)
 .debug_macinfo
                0x00bdecec    0x4fcee target\libbelle_drivers.a(dac_ad5392_inst.c.obj)
 .debug_macinfo
                0x00c2e9da    0x4ba69 target\libbelle_drivers.a(adc_intern_stm32f107.c.obj)
 .debug_macinfo
                0x00c7a443     0x2e30 target\libbelle_drivers.a(adc_intern_stm32f107_inst.c.obj)
 .debug_macinfo
                0x00c7d273    0x4e9fb target\libbelle_drivers.a(i2c.c.obj)
 .debug_macinfo
                0x00ccbc6e    0x4e9f3 target\libbelle_drivers.a(i2c_inst.c.obj)
 .debug_macinfo
                0x00d1a661    0x509e4 target\libbelle_drivers.a(eeprom.c.obj)
 .debug_macinfo
                0x00d6b045    0x4ed41 target\libbelle_drivers.a(eeprom_inst.c.obj)
 .debug_macinfo
                0x00db9d86    0x4bbb8 target\libxme_stm32f0xspl_spi.a(stm32f10x_spi.c.obj)
 .debug_macinfo
                0x00e0593e    0x4be15 target\libxme_stm32f0xspl_i2c.a(stm32f10x_i2c.c.obj)
 .debug_macinfo
                0x00e51753    0x4bfcc target\libxme_stm32f0xspl_adc.a(stm32f10x_adc.c.obj)
 .debug_macinfo
                0x00e9d71f     0x74be target\libxme_core_core.a(core.c.obj)
 .debug_macinfo
                0x00ea4bdd     0x778f target\libxme_core_core.a(dcc.c.obj)
 .debug_macinfo
                0x00eac36c     0x7294 target\libxme_core_core.a(directory.c.obj)
 .debug_macinfo
                0x00eb3600     0x7773 target\libxme_core_core.a(interfaceManager.c.obj)
 .debug_macinfo
                0x00ebad73     0x68b1 target\libxme_core_core.a(md.c.obj)
 .debug_macinfo
                0x00ec1624     0x7291 target\libxme_core_core.a(nodeManager.c.obj)
 .debug_macinfo
                0x00ec88b5     0x7d37 target\libxme_core_core.a(net_plugin.c.obj)
 .debug_macinfo
                0x00ed05ec     0x78ef target\libxme_core_core.a(net_plugin_tcp.c.obj)
 .debug_macinfo
                0x00ed7edb     0x751f target\libxme_core_core.a(packet.c.obj)
 .debug_macinfo
                0x00edf3fa     0x7573 target\libxme_core_core.a(resourceManager.c.obj)
 .debug_macinfo
                0x00ee696d     0x7293 target\libxme_core_core.a(routingTable.c.obj)
 .debug_macinfo
                0x00eedc00     0x7f24 target\libxme_core_core.a(rr.c.obj)
 .debug_macinfo
                0x00ef5b24     0x72ca target\libxme_core_core.a(broker.c.obj)
 .debug_macinfo
                0x00efcdee     0xc211 target\libxme_hal_net.a(net_arch.c.obj)
 .debug_macinfo
                0x00f08fff     0xa065 target\libxme_lwip_netif_arp.a(etharp.c.obj)
 .debug_macinfo
                0x00f13064     0xcfb1 target\libxme_lwip_core.a(netdb.c.obj)
 .debug_macinfo
                0x00f20015    0x4c361 target\libxme_stm32f0xspl_rcc.a(stm32f10x_rcc.c.obj)
 .debug_macinfo
                0x00f6c376    0x4b965 target\libxme_stm32f0xspl_misc.a(misc.c.obj)
 .debug_macinfo
                0x00fb7cdb    0x4b95d target\libxme_stm32f0xspl_misc.a(stm32f10x_exti.c.obj)
 .debug_macinfo
                0x01003638    0x4bb94 target\libxme_stm32f0xspl_gpio.a(stm32f10x_gpio.c.obj)
 .debug_macinfo
                0x0104f1cc     0x249a target\libxme_hal_energy.a(energy_arch.c.obj)
 .debug_macinfo
                0x01051666     0x9a24 target\libxme_hal_sched.a(sched_arch.c.obj)
 .debug_macinfo
                0x0105b08a     0x912b target\libxme_hal_sync.a(sync_arch.c.obj)
 .debug_macinfo
                0x010641b5     0x7475 target\libxme_hal_table.a(table_arch.c.obj)
 .debug_macinfo
                0x0106b62a     0x690a target\libxme_hal_tls.a(tls_arch.c.obj)
 .debug_macinfo
                0x01071f34     0x60a2 target\libxme_hal_random.a(random_arch.c.obj)
 .debug_macinfo
                0x01077fd6     0x7f9f target\libxme_hal_sharedPtr.a(sharedPtr_arch.c.obj)
 .debug_macinfo
                0x0107ff75     0x72fc target\libxme_hal_mem.a(mem_arch.c.obj)

.debug_weaknames
 *(.debug_weaknames)

.debug_funcnames
 *(.debug_funcnames)

.debug_typenames
 *(.debug_typenames)

.debug_varnames
 *(.debug_varnames)
OUTPUT(target\firmware elf32-littlearm)

.debug_pubtypes
                0x00000000     0xb50b
 .debug_pubtypes
                0x00000000       0x1f CMakeFiles/firmware.dir/stm32f10x_it.c.obj
 .debug_pubtypes
                0x0000001f       0x99 CMakeFiles/firmware.dir/lwip_test.c.obj
 .debug_pubtypes
                0x000000b8      0x1e5 CMakeFiles/firmware.dir/udpecho.c.obj
 .debug_pubtypes
                0x0000029d      0x2b5 CMakeFiles/firmware.dir/dac_spi_cs_mux.c.obj
 .debug_pubtypes
                0x00000552      0x3d1 CMakeFiles/firmware.dir/adc_spi_cs_mux.c.obj
 .debug_pubtypes
                0x00000923      0x5d8 CMakeFiles/firmware.dir/belle_II_PS_node_XME_Component.c.obj
 .debug_pubtypes
                0x00000efb      0x2d6 CMakeFiles/firmware.dir/help_functions_for_calibration.c.obj
 .debug_pubtypes
                0x000011d1      0x464 CMakeFiles/firmware.dir/application_logic.c.obj
 .debug_pubtypes
                0x00001635      0x371 CMakeFiles/firmware.dir/self_tests.c.obj
 .debug_pubtypes
                0x000019a6      0x2c6 CMakeFiles/firmware.dir/regulator_status_enable_pins.c.obj
 .debug_pubtypes
                0x00001c6c      0x3fa CMakeFiles/firmware.dir/initialization_functions.c.obj
 .debug_pubtypes
                0x00002066      0x392 CMakeFiles/firmware.dir/startup.c.obj
 .debug_pubtypes
                0x000023f8      0x3cf CMakeFiles/firmware.dir/recalibrate_logic.c.obj
 .debug_pubtypes
                0x000027c7      0x373 CMakeFiles/firmware.dir/shutdown.c.obj
 .debug_pubtypes
                0x00002b3a       0x90 CMakeFiles/firmware.dir/alive_strobe.c.obj
 .debug_pubtypes
                0x00002bca      0x560 CMakeFiles/firmware.dir/belle_network_connection_Component.c.obj
 .debug_pubtypes
                0x0000312a      0x845 CMakeFiles/firmware.dir/main.c.obj
 .debug_pubtypes
                0x0000396f       0x33 target\libxme_target_startup.a(port.c.obj)
 .debug_pubtypes
                0x000039a2       0x26 target\libxme_lwip_core.a(def.c.obj)
 .debug_pubtypes
                0x000039c8      0x156 target\libxme_lwip_core.a(pbuf.c.obj)
 .debug_pubtypes
                0x00003b1e      0x1bd target\libxme_lwip_core.a(tcp.c.obj)
 .debug_pubtypes
                0x00003cdb      0x1b1 target\libxme_lwip_core.a(tcp_out.c.obj)
 .debug_pubtypes
                0x00003e8c      0x14d target\libxme_lwip_core.a(timers.c.obj)
 .debug_pubtypes
                0x00003fd9      0x170 target\libxme_lwip_core.a(udp.c.obj)
 .debug_pubtypes
                0x00004149      0x2bf target\libxme_lwip_core.a(sockets.c.obj)
 .debug_pubtypes
                0x00004408      0x23d target\libxme_lwip_core.a(tcpip.c.obj)
 .debug_pubtypes
                0x00004645      0x1a4 target\libxme_lwip_core.a(dhcp.c.obj)
 .debug_pubtypes
                0x000047e9       0xee target\libxme_lwip_core.a(dns.c.obj)
 .debug_pubtypes
                0x000048d7       0x12 target\libxme_lwip_core.a(init.c.obj)
 .debug_pubtypes
                0x000048e9       0x97 target\libxme_lwip_core.a(mem.c.obj)
 .debug_pubtypes
                0x00004980       0x60 target\libxme_lwip_core.a(memp.c.obj)
 .debug_pubtypes
                0x000049e0      0x21a target\libxme_lwip_core.a(netif.c.obj)
 .debug_pubtypes
                0x00004bfa      0x1eb target\libxme_lwip_core.a(tcp_in.c.obj)
 .debug_pubtypes
                0x00004de5      0x22b target\libxme_lwip_core.a(api_lib.c.obj)
 .debug_pubtypes
                0x00005010      0x259 target\libxme_lwip_core.a(api_msg.c.obj)
 .debug_pubtypes
                0x00005269       0x70 target\libxme_lwip_core.a(netbuf.c.obj)
 .debug_pubtypes
                0x000052d9      0x13c target\libxme_lwip_core.a(raw.c.obj)
 .debug_pubtypes
                0x00005415      0x155 target\libxme_lwip_core_ipv4.a(icmp.c.obj)
 .debug_pubtypes
                0x0000556a      0x13c target\libxme_lwip_core_ipv4.a(igmp.c.obj)
 .debug_pubtypes
                0x000056a6       0x60 target\libxme_lwip_core_ipv4.a(inet_chksum.c.obj)
 .debug_pubtypes
                0x00005706      0x166 target\libxme_lwip_core_ipv4.a(ip.c.obj)
 .debug_pubtypes
                0x0000586c       0xe8 target\libxme_lwip_core_ipv4.a(ip_addr.c.obj)
 .debug_pubtypes
                0x00005954      0x15a target\libxme_lwip_core_ipv4.a(ip_frag.c.obj)
 .debug_pubtypes
                0x00005aae       0x31 target\libxme_lwip_netif_ethernet.a(enet.c.obj)
 .debug_pubtypes
                0x00005adf      0x19d target\libxme_lwip_netif_ethernet.a(lwiplib.c.obj)
 .debug_pubtypes
                0x00005c7c      0x1d5 target\libxme_lwip_netif_ethernet.a(ethernetif.c.obj)
 .debug_pubtypes
                0x00005e51       0xd9 target\libxme_lwip_netif_ethernet.a(sys_arch.c.obj)
 .debug_pubtypes
                0x00005f2a       0xc1 target\libxme_lwip_netif_ethernet.a(stm32_eth.c.obj)
 .debug_pubtypes
                0x00005feb       0xd4 target\libxme_freertos_kernel.a(queue.c.obj)
 .debug_pubtypes
                0x000060bf      0x10c target\libxme_freertos_kernel.a(tasks.c.obj)
 .debug_pubtypes
                0x000061cb       0x7a target\libxme_freertos_kernel.a(list.c.obj)
 .debug_pubtypes
                0x00006245       0x4c target\libxme_freertos_memmang.a(heap_2.c.obj)
 .debug_pubtypes
                0x00006291      0x119 target\libxme_target_bsp.a(enet_arch.c.obj)
 .debug_pubtypes
                0x000063aa       0x67 target\libxme_target_bsp.a(system_stm32f10x.c.obj)
 .debug_pubtypes
                0x00006411       0xf1 target\libxme_hal_dio.a(dio_arch.c.obj)
 .debug_pubtypes
                0x00006502      0x137 target\libbelle_drivers.a(mux.c.obj)
 .debug_pubtypes
                0x00006639       0xb3 target\libbelle_drivers.a(mux_inst.c.obj)
 .debug_pubtypes
                0x000066ec       0x7d target\libbelle_drivers.a(gpio_config.c.obj)
 .debug_pubtypes
                0x00006769      0x1e3 target\libbelle_drivers.a(spi.c.obj)
 .debug_pubtypes
                0x0000694c       0xec target\libbelle_drivers.a(spi_inst.c.obj)
 .debug_pubtypes
                0x00006a38      0x217 target\libbelle_drivers.a(adc_ad7322.c.obj)
 .debug_pubtypes
                0x00006c4f       0xff target\libbelle_drivers.a(adc_ad7322_inst.c.obj)
 .debug_pubtypes
                0x00006d4e      0x229 target\libbelle_drivers.a(dac_ad5392.c.obj)
 .debug_pubtypes
                0x00006f77      0x124 target\libbelle_drivers.a(dac_ad5392_inst.c.obj)
 .debug_pubtypes
                0x0000709b      0x102 target\libbelle_drivers.a(adc_intern_stm32f107.c.obj)
 .debug_pubtypes
                0x0000719d       0x38 target\libbelle_drivers.a(adc_intern_stm32f107_inst.c.obj)
 .debug_pubtypes
                0x000071d5      0x115 target\libbelle_drivers.a(i2c.c.obj)
 .debug_pubtypes
                0x000072ea       0xb0 target\libbelle_drivers.a(i2c_inst.c.obj)
 .debug_pubtypes
                0x0000739a      0x168 target\libbelle_drivers.a(eeprom.c.obj)
 .debug_pubtypes
                0x00007502       0xe9 target\libbelle_drivers.a(eeprom_inst.c.obj)
 .debug_pubtypes
                0x000075eb       0xc6 target\libxme_stm32f0xspl_spi.a(stm32f10x_spi.c.obj)
 .debug_pubtypes
                0x000076b1       0xb2 target\libxme_stm32f0xspl_i2c.a(stm32f10x_i2c.c.obj)
 .debug_pubtypes
                0x00007763       0x8c target\libxme_stm32f0xspl_adc.a(stm32f10x_adc.c.obj)
 .debug_pubtypes
                0x000077ef       0x8f target\libxme_core_core.a(core.c.obj)
 .debug_pubtypes
                0x0000787e      0x55b target\libxme_core_core.a(dcc.c.obj)
 .debug_pubtypes
                0x00007dd9      0x74d target\libxme_core_core.a(directory.c.obj)
 .debug_pubtypes
                0x00008526      0x308 target\libxme_core_core.a(interfaceManager.c.obj)
 .debug_pubtypes
                0x0000882e      0x222 target\libxme_core_core.a(md.c.obj)
 .debug_pubtypes
                0x00008a50      0x2e2 target\libxme_core_core.a(nodeManager.c.obj)
 .debug_pubtypes
                0x00008d32      0x1b6 target\libxme_core_core.a(net_plugin.c.obj)
 .debug_pubtypes
                0x00008ee8      0x2e2 target\libxme_core_core.a(net_plugin_tcp.c.obj)
 .debug_pubtypes
                0x000091ca      0x130 target\libxme_core_core.a(packet.c.obj)
 .debug_pubtypes
                0x000092fa      0x6d9 target\libxme_core_core.a(resourceManager.c.obj)
 .debug_pubtypes
                0x000099d3      0x2e2 target\libxme_core_core.a(routingTable.c.obj)
 .debug_pubtypes
                0x00009cb5      0x560 target\libxme_core_core.a(rr.c.obj)
 .debug_pubtypes
                0x0000a215      0x2d7 target\libxme_core_core.a(broker.c.obj)
 .debug_pubtypes
                0x0000a4ec      0x2fd target\libxme_hal_net.a(net_arch.c.obj)
 .debug_pubtypes
                0x0000a7e9      0x1bc target\libxme_lwip_netif_arp.a(etharp.c.obj)
 .debug_pubtypes
                0x0000a9a5       0xef target\libxme_lwip_core.a(netdb.c.obj)
 .debug_pubtypes
                0x0000aa94       0x9e target\libxme_stm32f0xspl_rcc.a(stm32f10x_rcc.c.obj)
 .debug_pubtypes
                0x0000ab32       0x80 target\libxme_stm32f0xspl_misc.a(misc.c.obj)
 .debug_pubtypes
                0x0000abb2       0xa2 target\libxme_stm32f0xspl_misc.a(stm32f10x_exti.c.obj)
 .debug_pubtypes
                0x0000ac54       0xc3 target\libxme_stm32f0xspl_gpio.a(stm32f10x_gpio.c.obj)
 .debug_pubtypes
                0x0000ad17      0x234 target\libxme_hal_sched.a(sched_arch.c.obj)
 .debug_pubtypes
                0x0000af4b      0x1a2 target\libxme_hal_sync.a(sync_arch.c.obj)
 .debug_pubtypes
                0x0000b0ed      0x11b target\libxme_hal_table.a(table_arch.c.obj)
 .debug_pubtypes
                0x0000b208       0xcd target\libxme_hal_tls.a(tls_arch.c.obj)
 .debug_pubtypes
                0x0000b2d5       0x9c target\libxme_hal_random.a(random_arch.c.obj)
 .debug_pubtypes
                0x0000b371       0xfd target\libxme_hal_sharedPtr.a(sharedPtr_arch.c.obj)
 .debug_pubtypes
                0x0000b46e       0x9d target\libxme_hal_mem.a(mem_arch.c.obj)

.debug_ranges   0x00000000       0xf8
 .debug_ranges  0x00000000       0x20 target\libxme_target_startup.a(startup_stm32f10x_cl.S.obj)
 .debug_ranges  0x00000020       0x18 target\libxme_lwip_core.a(tcp.c.obj)
 .debug_ranges  0x00000038       0x60 target\libxme_lwip_core.a(tcp_out.c.obj)
 .debug_ranges  0x00000098       0x18 target\libxme_lwip_core.a(netif.c.obj)
 .debug_ranges  0x000000b0       0x18 target\libxme_lwip_core.a(api_msg.c.obj)
 .debug_ranges  0x000000c8       0x18 target\libxme_lwip_core_ipv4.a(icmp.c.obj)
 .debug_ranges  0x000000e0       0x18 target\libxme_core_core.a(net_plugin_tcp.c.obj)
